---
triple:          'arm64-apple-darwin'
binary-path:     "/Users/plotnickslope/Desktop/学习资料/模式识别/作业/Eigenfaces/main"
relocations:
  - { offsetInCU: 0x113B4, offset: 0x113B4, size: 0x8, addend: 0x0, symName: __ZNSt3__124__put_character_sequenceB7v160006IcNS_11char_traitsIcEEEERNS_13basic_ostreamIT_T0_EES7_PKS4_m, symObjAddr: 0x6994, symBinAddr: 0x100009E10, symSize: 0x1EC }
  - { offsetInCU: 0x12B72, offset: 0x12B72, size: 0x8, addend: 0x0, symName: __ZNSt3__1lsB7v160006IcNS_11char_traitsIcEENS_9allocatorIcEEEERNS_13basic_ostreamIT_T0_EES9_RKNS_12basic_stringIS6_S7_T1_EE, symObjAddr: 0x1438, symBinAddr: 0x1000048B4, symSize: 0x4C }
  - { offsetInCU: 0x12BCA, offset: 0x12BCA, size: 0x8, addend: 0x0, symName: __ZNSt3__1lsB7v160006INS_11char_traitsIcEEEERNS_13basic_ostreamIcT_EES6_PKc, symObjAddr: 0x1484, symBinAddr: 0x100004900, symSize: 0x48 }
  - { offsetInCU: 0x12C10, offset: 0x12C10, size: 0x8, addend: 0x0, symName: __ZNSt3__14endlB7v160006IcNS_11char_traitsIcEEEERNS_13basic_ostreamIT_T0_EES7_, symObjAddr: 0x14F8, symBinAddr: 0x100004974, symSize: 0x58 }
  - { offsetInCU: 0x14A67, offset: 0x14A67, size: 0x8, addend: 0x0, symName: __ZNSt3__13minB7v160006IiEERKT_S3_S3_, symObjAddr: 0x19A4, symBinAddr: 0x100004E20, symSize: 0x2C }
  - { offsetInCU: 0x15852, offset: 0x15852, size: 0x8, addend: 0x0, symName: __ZNSt3__17getlineB7v160006IcNS_11char_traitsIcEENS_9allocatorIcEEEERNS_13basic_istreamIT_T0_EES9_RNS_12basic_stringIS6_S7_T1_EE, symObjAddr: 0x1E1C, symBinAddr: 0x100005298, symSize: 0x5C }
  - { offsetInCU: 0x15C9A, offset: 0x15C9A, size: 0x8, addend: 0x0, symName: __ZNSt3__17getlineB7v160006IcNS_11char_traitsIcEENS_9allocatorIcEEEERNS_13basic_istreamIT_T0_EES9_RNS_12basic_stringIS6_S7_T1_EES6_, symObjAddr: 0x1FB4, symBinAddr: 0x100005430, symSize: 0x238 }
  - { offsetInCU: 0x15D6E, offset: 0x15D6E, size: 0x8, addend: 0x0, symName: __ZNSt3__119__debug_db_insert_cB7v160006INS_12basic_stringIcNS_11char_traitsIcEENS_9allocatorIcEEEEEEvPT_, symObjAddr: 0x25CC, symBinAddr: 0x100005A48, symSize: 0x10 }
  - { offsetInCU: 0x15D9F, offset: 0x15D9F, size: 0x8, addend: 0x0, symName: __ZNSt3__19use_facetB7v160006INS_5ctypeIcEEEERKT_RKNS_6localeE, symObjAddr: 0x2794, symBinAddr: 0x100005C10, symSize: 0x2C }
  - { offsetInCU: 0x1626E, offset: 0x1626E, size: 0x8, addend: 0x0, symName: __ZNSt3__125__debug_db_invalidate_allB7v160006INS_12basic_stringIcNS_11char_traitsIcEENS_9allocatorIcEEEEEEvPT_, symObjAddr: 0x2E90, symBinAddr: 0x10000630C, symSize: 0x10 }
  - { offsetInCU: 0x164D4, offset: 0x164D4, size: 0x8, addend: 0x0, symName: __ZNSt3__112__to_addressB7v160006IN2cv3MatEEEPT_S4_, symObjAddr: 0x339C, symBinAddr: 0x100006818, symSize: 0x14 }
  - { offsetInCU: 0x16509, offset: 0x16509, size: 0x8, addend: 0x0, symName: __ZNSt3__13maxB7v160006ImEERKT_S3_S3_, symObjAddr: 0x37A8, symBinAddr: 0x100006C24, symSize: 0x2C }
  - { offsetInCU: 0x1654C, offset: 0x1654C, size: 0x8, addend: 0x0, symName: __ZNSt3__13minB7v160006ImEERKT_S3_S3_, symObjAddr: 0x37D4, symBinAddr: 0x100006C50, symSize: 0x2C }
  - { offsetInCU: 0x16790, offset: 0x16790, size: 0x8, addend: 0x0, symName: __ZNSt3__13minB7v160006ImNS_6__lessImmEEEERKT_S5_S5_T0_, symObjAddr: 0x3860, symBinAddr: 0x100006CDC, symSize: 0x54 }
  - { offsetInCU: 0x16825, offset: 0x16825, size: 0x8, addend: 0x0, symName: __ZNSt3__120__throw_length_errorB7v160006EPKc, symObjAddr: 0x3940, symBinAddr: 0x100006DBC, symSize: 0x64 }
  - { offsetInCU: 0x1684D, offset: 0x1684D, size: 0x8, addend: 0x0, symName: __ZNSt3__13maxB7v160006ImNS_6__lessImmEEEERKT_S5_S5_T0_, symObjAddr: 0x3A84, symBinAddr: 0x100006F00, symSize: 0x54 }
  - { offsetInCU: 0x168A7, offset: 0x168A7, size: 0x8, addend: 0x0, symName: __ZNSt3__119__allocate_at_leastB7v160006INS_9allocatorIN2cv3MatEEEEENS_19__allocation_resultINS_16allocator_traitsIT_E7pointerEEERS7_m, symObjAddr: 0x3BF4, symBinAddr: 0x100007070, symSize: 0x40 }
  - { offsetInCU: 0x168EA, offset: 0x168EA, size: 0x8, addend: 0x0, symName: __ZNSt3__117__libcpp_allocateB7v160006Emm, symObjAddr: 0x3D98, symBinAddr: 0x100007214, symSize: 0x28 }
  - { offsetInCU: 0x16927, offset: 0x16927, size: 0x8, addend: 0x0, symName: __ZNSt3__121__libcpp_operator_newB7v160006IJmEEEPvDpT_, symObjAddr: 0x3DC0, symBinAddr: 0x10000723C, symSize: 0x24 }
  - { offsetInCU: 0x16960, offset: 0x16960, size: 0x8, addend: 0x0, symName: __ZNSt3__142__uninitialized_allocator_move_if_noexceptB7v160006INS_9allocatorIN2cv3MatEEENS_16reverse_iteratorIPS3_EES7_S7_EET2_RT_T0_T1_S8_, symObjAddr: 0x3F1C, symBinAddr: 0x100007398, symSize: 0x12C }
  - { offsetInCU: 0x16A00, offset: 0x16A00, size: 0x8, addend: 0x0, symName: __ZNSt3__14swapB7v160006IPN2cv3MatEEENS_9enable_ifIXaasr21is_move_constructibleIT_EE5valuesr18is_move_assignableIS5_EE5valueEvE4typeERS5_S8_, symObjAddr: 0x4094, symBinAddr: 0x100007510, symSize: 0x3C }
  - { offsetInCU: 0x16A51, offset: 0x16A51, size: 0x8, addend: 0x0, symName: __ZNSt3__125__debug_db_invalidate_allB7v160006INS_6vectorIN2cv3MatENS_9allocatorIS3_EEEEEEvPT_, symObjAddr: 0x4198, symBinAddr: 0x100007614, symSize: 0x10 }
  - { offsetInCU: 0x16A82, offset: 0x16A82, size: 0x8, addend: 0x0, symName: __ZNSt3__122__make_exception_guardB7v160006INS_29_AllocatorDestroyRangeReverseINS_9allocatorIN2cv3MatEEENS_16reverse_iteratorIPS4_EEEEEENS_28__exception_guard_exceptionsIT_EESB_, symObjAddr: 0x41F0, symBinAddr: 0x10000766C, symSize: 0x4C }
  - { offsetInCU: 0x16AB8, offset: 0x16AB8, size: 0x8, addend: 0x0, symName: __ZNSt3__1neB7v160006IPN2cv3MatES3_EEbRKNS_16reverse_iteratorIT_EERKNS4_IT0_EE, symObjAddr: 0x4280, symBinAddr: 0x1000076FC, symSize: 0x48 }
  - { offsetInCU: 0x16B04, offset: 0x16B04, size: 0x8, addend: 0x0, symName: __ZNSt3__112__to_addressB7v160006INS_16reverse_iteratorIPN2cv3MatEEEvEENS_5decayIDTclsr19__to_address_helperIT_EE6__callclsr3stdE7declvalIRKS7_EEEEE4typeES9_, symObjAddr: 0x42FC, symBinAddr: 0x100007778, symSize: 0x24 }
  - { offsetInCU: 0x16B63, offset: 0x16B63, size: 0x8, addend: 0x0, symName: __ZNSt3__119__allocator_destroyB7v160006INS_9allocatorIN2cv3MatEEENS_16reverse_iteratorINS5_IPS3_EEEES8_EEvRT_T0_T1_, symObjAddr: 0x45DC, symBinAddr: 0x100007A58, symSize: 0x70 }
  - { offsetInCU: 0x16BC8, offset: 0x16BC8, size: 0x8, addend: 0x0, symName: __ZNSt3__1neB7v160006INS_16reverse_iteratorIPN2cv3MatEEES5_EEbRKNS1_IT_EERKNS1_IT0_EE, symObjAddr: 0x4688, symBinAddr: 0x100007B04, symSize: 0x60 }
  - { offsetInCU: 0x16C14, offset: 0x16C14, size: 0x8, addend: 0x0, symName: __ZNSt3__112__to_addressB7v160006INS_16reverse_iteratorINS1_IPN2cv3MatEEEEEvEENS_5decayIDTclsr19__to_address_helperIT_EE6__callclsr3stdE7declvalIRKS8_EEEEE4typeESA_, symObjAddr: 0x4714, symBinAddr: 0x100007B90, symSize: 0x24 }
  - { offsetInCU: 0x16C73, offset: 0x16C73, size: 0x8, addend: 0x0, symName: __ZNSt3__119__libcpp_deallocateB7v160006EPvmm, symObjAddr: 0x4AD0, symBinAddr: 0x100007F4C, symSize: 0x30 }
  - { offsetInCU: 0x16CBB, offset: 0x16CBB, size: 0x8, addend: 0x0, symName: __ZNSt3__127__do_deallocate_handle_sizeB7v160006IJEEEvPvmDpT_, symObjAddr: 0x4B00, symBinAddr: 0x100007F7C, symSize: 0x28 }
  - { offsetInCU: 0x16CF9, offset: 0x16CF9, size: 0x8, addend: 0x0, symName: __ZNSt3__124__libcpp_operator_deleteB7v160006IJPvEEEvDpT_, symObjAddr: 0x4B28, symBinAddr: 0x100007FA4, symSize: 0x24 }
  - { offsetInCU: 0x16D2E, offset: 0x16D2E, size: 0x8, addend: 0x0, symName: __ZNSt3__112__to_addressB7v160006IiEEPT_S2_, symObjAddr: 0x4DF8, symBinAddr: 0x100008274, symSize: 0x14 }
  - { offsetInCU: 0x16D63, offset: 0x16D63, size: 0x8, addend: 0x0, symName: __ZNSt3__119__allocate_at_leastB7v160006INS_9allocatorIiEEEENS_19__allocation_resultINS_16allocator_traitsIT_E7pointerEEERS5_m, symObjAddr: 0x53FC, symBinAddr: 0x100008878, symSize: 0x40 }
  - { offsetInCU: 0x16DA6, offset: 0x16DA6, size: 0x8, addend: 0x0, symName: __ZNSt3__142__uninitialized_allocator_move_if_noexceptB7v160006INS_9allocatorIiEENS_16reverse_iteratorIPiEES5_ivEET1_RT_T0_S9_S6_, symObjAddr: 0x5684, symBinAddr: 0x100008B00, symSize: 0x78 }
  - { offsetInCU: 0x16E23, offset: 0x16E23, size: 0x8, addend: 0x0, symName: __ZNSt3__14swapB7v160006IPiEENS_9enable_ifIXaasr21is_move_constructibleIT_EE5valuesr18is_move_assignableIS3_EE5valueEvE4typeERS3_S6_, symObjAddr: 0x5748, symBinAddr: 0x100008BC4, symSize: 0x3C }
  - { offsetInCU: 0x16E74, offset: 0x16E74, size: 0x8, addend: 0x0, symName: __ZNSt3__125__debug_db_invalidate_allB7v160006INS_6vectorIiNS_9allocatorIiEEEEEEvPT_, symObjAddr: 0x5830, symBinAddr: 0x100008CAC, symSize: 0x10 }
  - { offsetInCU: 0x16EA5, offset: 0x16EA5, size: 0x8, addend: 0x0, symName: __ZNSt3__14moveB7v160006INS_16reverse_iteratorIPiEES3_EET0_T_S5_S4_, symObjAddr: 0x5888, symBinAddr: 0x100008D04, symSize: 0x78 }
  - { offsetInCU: 0x16EFF, offset: 0x16EFF, size: 0x8, addend: 0x0, symName: __ZNSt3__16__moveB7v160006INS_17_ClassicAlgPolicyENS_16reverse_iteratorIPiEES4_S4_EENS_4pairIT0_T2_EES6_T1_S7_, symObjAddr: 0x5900, symBinAddr: 0x100008D7C, symSize: 0x64 }
  - { offsetInCU: 0x16F6B, offset: 0x16F6B, size: 0x8, addend: 0x0, symName: __ZNSt3__123__dispatch_copy_or_moveB7v160006INS_17_ClassicAlgPolicyENS_11__move_loopIS1_EENS_14__move_trivialENS_16reverse_iteratorIPiEES7_S7_EENS_4pairIT2_T4_EES9_T3_SA_, symObjAddr: 0x5964, symBinAddr: 0x100008DE0, symSize: 0x64 }
  - { offsetInCU: 0x16FE9, offset: 0x16FE9, size: 0x8, addend: 0x0, symName: __ZNSt3__121__unwrap_and_dispatchB7v160006INS_10__overloadINS_11__move_loopINS_17_ClassicAlgPolicyEEENS_14__move_trivialEEENS_16reverse_iteratorIPiEES9_S9_Li0EEENS_4pairIT0_T2_EESB_T1_SC_, symObjAddr: 0x59C8, symBinAddr: 0x100008E44, symSize: 0x12C }
  - { offsetInCU: 0x17079, offset: 0x17079, size: 0x8, addend: 0x0, symName: __ZNSt3__114__unwrap_rangeB7v160006INS_16reverse_iteratorIPiEES3_EENS_4pairIT0_S5_EET_S7_, symObjAddr: 0x5AF4, symBinAddr: 0x100008F70, symSize: 0x84 }
  - { offsetInCU: 0x171F4, offset: 0x171F4, size: 0x8, addend: 0x0, symName: __ZNSt3__113__unwrap_iterB7v160006INS_16reverse_iteratorIPiEENS_18__unwrap_iter_implIS3_Lb0EEELi0EEEDTclsrT0_8__unwrapclsr3stdE7declvalIT_EEEES7_, symObjAddr: 0x5C18, symBinAddr: 0x100009094, symSize: 0x44 }
  - { offsetInCU: 0x17238, offset: 0x17238, size: 0x8, addend: 0x0, symName: __ZNSt3__19make_pairB7v160006INS_16reverse_iteratorIPiEES3_EENS_4pairINS_18__unwrap_ref_decayIT_E4typeENS5_IT0_E4typeEEEOS6_OS9_, symObjAddr: 0x5C5C, symBinAddr: 0x1000090D8, symSize: 0x38 }
  - { offsetInCU: 0x17287, offset: 0x17287, size: 0x8, addend: 0x0, symName: __ZNSt3__114__rewrap_rangeB7v160006INS_16reverse_iteratorIPiEES3_EET_S4_T0_, symObjAddr: 0x5C94, symBinAddr: 0x100009110, symSize: 0x5C }
  - { offsetInCU: 0x172D3, offset: 0x172D3, size: 0x8, addend: 0x0, symName: __ZNSt3__113__rewrap_iterB7v160006INS_16reverse_iteratorIPiEES3_NS_18__unwrap_iter_implIS3_Lb0EEEEET_S6_T0_, symObjAddr: 0x5CF0, symBinAddr: 0x10000916C, symSize: 0x74 }
  - { offsetInCU: 0x17328, offset: 0x17328, size: 0x8, addend: 0x0, symName: __ZNSt3__1neB7v160006IPiS1_EEbRKNS_16reverse_iteratorIT_EERKNS2_IT0_EE, symObjAddr: 0x5D64, symBinAddr: 0x1000091E0, symSize: 0x48 }
  - { offsetInCU: 0x17426, offset: 0x17426, size: 0x8, addend: 0x0, symName: __ZNSt3__13minB7v160006IiNS_6__lessIiiEEEERKT_S5_S5_T0_, symObjAddr: 0x6680, symBinAddr: 0x100009AFC, symSize: 0x54 }
  - { offsetInCU: 0x174BB, offset: 0x174BB, size: 0x8, addend: 0x0, symName: __ZNSt3__134__libcpp_atomic_refcount_decrementB7v160006IlEET_RS1_, symObjAddr: 0x68AC, symBinAddr: 0x100009D28, symSize: 0x30 }
  - { offsetInCU: 0x174F0, offset: 0x174F0, size: 0x8, addend: 0x0, symName: __ZNSt3__118__constexpr_strlenB7v160006EPKc, symObjAddr: 0x6970, symBinAddr: 0x100009DEC, symSize: 0x24 }
  - { offsetInCU: 0x1751C, offset: 0x1751C, size: 0x8, addend: 0x0, symName: __ZNSt3__116__pad_and_outputB7v160006IcNS_11char_traitsIcEEEENS_19ostreambuf_iteratorIT_T0_EES6_PKS4_S8_S8_RNS_8ios_baseES4_, symObjAddr: 0x6B9C, symBinAddr: 0x10000A018, symSize: 0x240 }
  - { offsetInCU: 0x175EB, offset: 0x175EB, size: 0x8, addend: 0x0, symName: __ZNSt3__112__to_addressB7v160006IKcEEPT_S3_, symObjAddr: 0x6FE8, symBinAddr: 0x10000A464, symSize: 0x14 }
  - { offsetInCU: 0x17653, offset: 0x17653, size: 0x8, addend: 0x0, symName: __ZNSt3__119__debug_db_insert_cB7v160006INS_6vectorIN2cv3MatENS_9allocatorIS3_EEEEEEvPT_, symObjAddr: 0x719C, symBinAddr: 0x10000A618, symSize: 0x10 }
  - { offsetInCU: 0x17684, offset: 0x17684, size: 0x8, addend: 0x0, symName: __ZNSt3__118__debug_db_erase_cB7v160006INS_6vectorIN2cv3MatENS_9allocatorIS3_EEEEEEvPT_, symObjAddr: 0x738C, symBinAddr: 0x10000A808, symSize: 0x10 }
  - { offsetInCU: 0x176B5, offset: 0x176B5, size: 0x8, addend: 0x0, symName: __ZNSt3__119__debug_db_insert_cB7v160006INS_6vectorIiNS_9allocatorIiEEEEEEvPT_, symObjAddr: 0x74E4, symBinAddr: 0x10000A960, symSize: 0x10 }
  - { offsetInCU: 0x176E6, offset: 0x176E6, size: 0x8, addend: 0x0, symName: __ZNSt3__118__debug_db_erase_cB7v160006INS_6vectorIiNS_9allocatorIiEEEEEEvPT_, symObjAddr: 0x76D4, symBinAddr: 0x10000AB50, symSize: 0x10 }
  - { offsetInCU: 0x17D75, offset: 0x17D75, size: 0x8, addend: 0x0, symName: __ZSt28__throw_bad_array_new_lengthB7v160006v, symObjAddr: 0x3D64, symBinAddr: 0x1000071E0, symSize: 0x34 }
  - { offsetInCU: 0x18C92, offset: 0x18C92, size: 0x8, addend: 0x0, symName: __ZNSt3__16vectorIN2cv3MatENS_9allocatorIS2_EEE26__swap_out_circular_bufferERNS_14__split_bufferIS2_RS4_EE, symObjAddr: 0x35A8, symBinAddr: 0x100006A24, symSize: 0x118 }
  - { offsetInCU: 0x18D2A, offset: 0x18D2A, size: 0x8, addend: 0x0, symName: __ZNSt3__16vectorIiNS_9allocatorIiEEE26__swap_out_circular_bufferERNS_14__split_bufferIiRS2_EE, symObjAddr: 0x4FF4, symBinAddr: 0x100008470, symSize: 0x118 }
  - { offsetInCU: 0x1B018, offset: 0x1B018, size: 0x8, addend: 0x0, symName: _main, symObjAddr: 0x0, symBinAddr: 0x10000347C, symSize: 0x10B8 }
  - { offsetInCU: 0x1B1EB, offset: 0x1B1EB, size: 0x8, addend: 0x0, symName: __ZNSt3__112basic_stringIcNS_11char_traitsIcEENS_9allocatorIcEEEC1B7v160006IDnEEPKc, symObjAddr: 0x10B8, symBinAddr: 0x100004534, symSize: 0x34 }
  - { offsetInCU: 0x1B229, offset: 0x1B229, size: 0x8, addend: 0x0, symName: __ZNSt3__16vectorIN2cv3MatENS_9allocatorIS2_EEEC1B7v160006Ev, symObjAddr: 0x10EC, symBinAddr: 0x100004568, symSize: 0x2C }
  - { offsetInCU: 0x1B253, offset: 0x1B253, size: 0x8, addend: 0x0, symName: __ZNSt3__16vectorIiNS_9allocatorIiEEEC1B7v160006Ev, symObjAddr: 0x1118, symBinAddr: 0x100004594, symSize: 0x2C }
  - { offsetInCU: 0x1B27D, offset: 0x1B27D, size: 0x8, addend: 0x0, symName: __ZL8read_csvRKNSt3__112basic_stringIcNS_11char_traitsIcEENS_9allocatorIcEEEERNS_6vectorIN2cv3MatENS3_ISA_EEEERNS8_IiNS3_IiEEEEc, symObjAddr: 0x1144, symBinAddr: 0x1000045C0, symSize: 0x2F4 }
  - { offsetInCU: 0x1B33A, offset: 0x1B33A, size: 0x8, addend: 0x0, symName: __ZNSt3__113basic_ostreamIcNS_11char_traitsIcEEElsB7v160006EPFRS3_S4_E, symObjAddr: 0x14CC, symBinAddr: 0x100004948, symSize: 0x2C }
  - { offsetInCU: 0x1B36E, offset: 0x1B36E, size: 0x8, addend: 0x0, symName: __ZNKSt3__16vectorIN2cv3MatENS_9allocatorIS2_EEE4sizeB7v160006Ev, symObjAddr: 0x155C, symBinAddr: 0x1000049D8, symSize: 0x28 }
  - { offsetInCU: 0x1B394, offset: 0x1B394, size: 0x8, addend: 0x0, symName: __ZNSt3__16vectorIN2cv3MatENS_9allocatorIS2_EEEixB7v160006Em, symObjAddr: 0x1584, symBinAddr: 0x100004A00, symSize: 0x2C }
  - { offsetInCU: 0x1B3CB, offset: 0x1B3CB, size: 0x8, addend: 0x0, symName: __ZNSt3__16vectorIiNS_9allocatorIiEEEixB7v160006Em, symObjAddr: 0x15B0, symBinAddr: 0x100004A2C, symSize: 0x24 }
  - { offsetInCU: 0x1B402, offset: 0x1B402, size: 0x8, addend: 0x0, symName: __ZNKSt3__16vectorIiNS_9allocatorIiEEE4sizeB7v160006Ev, symObjAddr: 0x15D4, symBinAddr: 0x100004A50, symSize: 0x28 }
  - { offsetInCU: 0x1B428, offset: 0x1B428, size: 0x8, addend: 0x0, symName: __ZNSt3__16vectorIN2cv3MatENS_9allocatorIS2_EEE8pop_backEv, symObjAddr: 0x15FC, symBinAddr: 0x100004A78, symSize: 0x2C }
  - { offsetInCU: 0x1B450, offset: 0x1B450, size: 0x8, addend: 0x0, symName: __ZNSt3__16vectorIiNS_9allocatorIiEEE8pop_backEv, symObjAddr: 0x1628, symBinAddr: 0x100004AA4, symSize: 0x2C }
  - { offsetInCU: 0x1B894, offset: 0x1B894, size: 0x8, addend: 0x0, symName: __ZNK2cv3PtrINS_4face19EigenFaceRecognizerEEptEv, symObjAddr: 0x1654, symBinAddr: 0x100004AD0, symSize: 0x24 }
  - { offsetInCU: 0x1B8BA, offset: 0x1B8BA, size: 0x8, addend: 0x0, symName: __ZN2cv11_InputArrayC1ERKNSt3__16vectorINS_3MatENS1_9allocatorIS3_EEEE, symObjAddr: 0x1678, symBinAddr: 0x100004AF4, symSize: 0x34 }
  - { offsetInCU: 0x1B8F4, offset: 0x1B8F4, size: 0x8, addend: 0x0, symName: __ZN2cv11_InputArrayC1IiEERKNSt3__16vectorIT_NS2_9allocatorIS4_EEEE, symObjAddr: 0x16AC, symBinAddr: 0x100004B28, symSize: 0x34 }
  - { offsetInCU: 0x1B935, offset: 0x1B935, size: 0x8, addend: 0x0, symName: __ZN2cv11_InputArrayD1Ev, symObjAddr: 0x16E0, symBinAddr: 0x100004B5C, symSize: 0x2C }
  - { offsetInCU: 0x1B961, offset: 0x1B961, size: 0x8, addend: 0x0, symName: __ZN2cv11_InputArrayC1ERKNS_3MatE, symObjAddr: 0x170C, symBinAddr: 0x100004B88, symSize: 0x34 }
  - { offsetInCU: 0x1B99B, offset: 0x1B99B, size: 0x8, addend: 0x0, symName: __ZL10norm_0_255RKN2cv11_InputArrayE, symObjAddr: 0x1740, symBinAddr: 0x100004BBC, symSize: 0x214 }
  - { offsetInCU: 0x1B9E6, offset: 0x1B9E6, size: 0x8, addend: 0x0, symName: __ZNKSt3__112basic_stringIcNS_11char_traitsIcEENS_9allocatorIcEEE5c_strB7v160006Ev, symObjAddr: 0x1954, symBinAddr: 0x100004DD0, symSize: 0x24 }
  - { offsetInCU: 0x1BA0C, offset: 0x1BA0C, size: 0x8, addend: 0x0, symName: __ZNSt3__16vectorIiNS_9allocatorIiEEED1B7v160006Ev, symObjAddr: 0x1978, symBinAddr: 0x100004DF4, symSize: 0x2C }
  - { offsetInCU: 0x1BA36, offset: 0x1BA36, size: 0x8, addend: 0x0, symName: __ZN2cv3Mat2atIdEERT_i, symObjAddr: 0x19D0, symBinAddr: 0x100004E4C, symSize: 0x100 }
  - { offsetInCU: 0x1BA92, offset: 0x1BA92, size: 0x8, addend: 0x0, symName: __ZNK2cv3Mat3colEi, symObjAddr: 0x1AD0, symBinAddr: 0x100004F4C, symSize: 0x6C }
  - { offsetInCU: 0x1BACA, offset: 0x1BACA, size: 0x8, addend: 0x0, symName: __ZN2cv12_OutputArrayC1ERNS_3MatE, symObjAddr: 0x1B3C, symBinAddr: 0x100004FB8, symSize: 0x34 }
  - { offsetInCU: 0x1BB04, offset: 0x1BB04, size: 0x8, addend: 0x0, symName: __ZN2cv12_OutputArrayD1Ev, symObjAddr: 0x1B70, symBinAddr: 0x100004FEC, symSize: 0x2C }
  - { offsetInCU: 0x1BB31, offset: 0x1BB31, size: 0x8, addend: 0x0, symName: __ZN2cv5Range3allEv, symObjAddr: 0x1B9C, symBinAddr: 0x100005018, symSize: 0x2C }
  - { offsetInCU: 0x1BB47, offset: 0x1BB47, size: 0x8, addend: 0x0, symName: __ZN2cv5RangeC1Eii, symObjAddr: 0x1BC8, symBinAddr: 0x100005044, symSize: 0x3C }
  - { offsetInCU: 0x1BB91, offset: 0x1BB91, size: 0x8, addend: 0x0, symName: __ZN2cv3PtrINS_4face19EigenFaceRecognizerEED1Ev, symObjAddr: 0x1C04, symBinAddr: 0x100005080, symSize: 0x2C }
  - { offsetInCU: 0x1BBBD, offset: 0x1BBBD, size: 0x8, addend: 0x0, symName: __ZNSt3__16vectorIN2cv3MatENS_9allocatorIS2_EEED1B7v160006Ev, symObjAddr: 0x1C30, symBinAddr: 0x1000050AC, symSize: 0x2C }
  - { offsetInCU: 0x1BD0E, offset: 0x1BD0E, size: 0x8, addend: 0x0, symName: __ZNSt3__114basic_ifstreamIcNS_11char_traitsIcEEEC1EPKcj, symObjAddr: 0x1C5C, symBinAddr: 0x1000050D8, symSize: 0x16C }
  - { offsetInCU: 0x1BD58, offset: 0x1BD58, size: 0x8, addend: 0x0, symName: __ZNKSt3__19basic_iosIcNS_11char_traitsIcEEEntB7v160006Ev, symObjAddr: 0x1DC8, symBinAddr: 0x100005244, symSize: 0x28 }
  - { offsetInCU: 0x1BD7E, offset: 0x1BD7E, size: 0x8, addend: 0x0, symName: __ZNSt3__112basic_stringIcNS_11char_traitsIcEENS_9allocatorIcEEEC1B7v160006Ev, symObjAddr: 0x1DF0, symBinAddr: 0x10000526C, symSize: 0x2C }
  - { offsetInCU: 0x1BDA8, offset: 0x1BDA8, size: 0x8, addend: 0x0, symName: __ZNKSt3__19basic_iosIcNS_11char_traitsIcEEEcvbB7v160006Ev, symObjAddr: 0x1E78, symBinAddr: 0x1000052F4, symSize: 0x2C }
  - { offsetInCU: 0x1BE35, offset: 0x1BE35, size: 0x8, addend: 0x0, symName: __ZNSt3__118basic_stringstreamIcNS_11char_traitsIcEENS_9allocatorIcEEEC1B7v160006ERKNS_12basic_stringIcS2_S4_EEj, symObjAddr: 0x1EA4, symBinAddr: 0x100005320, symSize: 0x110 }
  - { offsetInCU: 0x1BE7D, offset: 0x1BE7D, size: 0x8, addend: 0x0, symName: __ZNKSt3__112basic_stringIcNS_11char_traitsIcEENS_9allocatorIcEEE5emptyB7v160006Ev, symObjAddr: 0x21EC, symBinAddr: 0x100005668, symSize: 0x30 }
  - { offsetInCU: 0x1BEA3, offset: 0x1BEA3, size: 0x8, addend: 0x0, symName: __ZNSt3__16vectorIN2cv3MatENS_9allocatorIS2_EEE9push_backB7v160006EOS2_, symObjAddr: 0x221C, symBinAddr: 0x100005698, symSize: 0x6C }
  - { offsetInCU: 0x1BEDA, offset: 0x1BEDA, size: 0x8, addend: 0x0, symName: __ZNSt3__16vectorIiNS_9allocatorIiEEE9push_backB7v160006EOi, symObjAddr: 0x2288, symBinAddr: 0x100005704, symSize: 0x6C }
  - { offsetInCU: 0x1BF16, offset: 0x1BF16, size: 0x8, addend: 0x0, symName: __ZNSt3__118basic_stringstreamIcNS_11char_traitsIcEENS_9allocatorIcEEED1Ev, symObjAddr: 0x22F4, symBinAddr: 0x100005770, symSize: 0x40 }
  - { offsetInCU: 0x1BF48, offset: 0x1BF48, size: 0x8, addend: 0x0, symName: __ZNSt3__114basic_ifstreamIcNS_11char_traitsIcEEED1Ev, symObjAddr: 0x2334, symBinAddr: 0x1000057B0, symSize: 0x40 }
  - { offsetInCU: 0x1BF75, offset: 0x1BF75, size: 0x8, addend: 0x0, symName: __ZNSt3__19basic_iosIcNS_11char_traitsIcEEEC2B7v160006Ev, symObjAddr: 0x2374, symBinAddr: 0x1000057F0, symSize: 0x44 }
  - { offsetInCU: 0x1BF9F, offset: 0x1BF9F, size: 0x8, addend: 0x0, symName: __ZNSt3__113basic_istreamIcNS_11char_traitsIcEEEC2B7v160006EPNS_15basic_streambufIcS2_EE, symObjAddr: 0x23B8, symBinAddr: 0x100005834, symSize: 0x64 }
  - { offsetInCU: 0x1BFE4, offset: 0x1BFE4, size: 0x8, addend: 0x0, symName: __ZNSt3__19basic_iosIcNS_11char_traitsIcEEE8setstateB7v160006Ej, symObjAddr: 0x241C, symBinAddr: 0x100005898, symSize: 0x2C }
  - { offsetInCU: 0x1C019, offset: 0x1C019, size: 0x8, addend: 0x0, symName: __ZNSt3__18ios_baseC2B7v160006Ev, symObjAddr: 0x2448, symBinAddr: 0x1000058C4, symSize: 0x24 }
  - { offsetInCU: 0x1C043, offset: 0x1C043, size: 0x8, addend: 0x0, symName: __ZNSt3__19basic_iosIcNS_11char_traitsIcEEE4initB7v160006EPNS_15basic_streambufIcS2_EE, symObjAddr: 0x246C, symBinAddr: 0x1000058E8, symSize: 0x44 }
  - { offsetInCU: 0x1C07A, offset: 0x1C07A, size: 0x8, addend: 0x0, symName: __ZNSt3__111char_traitsIcE3eofEv, symObjAddr: 0x24B0, symBinAddr: 0x10000592C, symSize: 0x8 }
  - { offsetInCU: 0x1C08E, offset: 0x1C08E, size: 0x8, addend: 0x0, symName: __ZNSt3__18ios_base8setstateB7v160006Ej, symObjAddr: 0x24B8, symBinAddr: 0x100005934, symSize: 0x34 }
  - { offsetInCU: 0x1C0C5, offset: 0x1C0C5, size: 0x8, addend: 0x0, symName: __ZNKSt3__19basic_iosIcNS_11char_traitsIcEEE4failB7v160006Ev, symObjAddr: 0x24EC, symBinAddr: 0x100005968, symSize: 0x28 }
  - { offsetInCU: 0x1C0EB, offset: 0x1C0EB, size: 0x8, addend: 0x0, symName: __ZNKSt3__18ios_base4failB7v160006Ev, symObjAddr: 0x2514, symBinAddr: 0x100005990, symSize: 0x28 }
  - { offsetInCU: 0x1C113, offset: 0x1C113, size: 0x8, addend: 0x0, symName: __ZNSt3__112basic_stringIcNS_11char_traitsIcEENS_9allocatorIcEEEC2B7v160006Ev, symObjAddr: 0x253C, symBinAddr: 0x1000059B8, symSize: 0x54 }
  - { offsetInCU: 0x1C143, offset: 0x1C143, size: 0x8, addend: 0x0, symName: __ZNSt3__117__compressed_pairINS_12basic_stringIcNS_11char_traitsIcEENS_9allocatorIcEEE5__repES5_EC1B7v160006INS_18__default_init_tagESA_EEOT_OT0_, symObjAddr: 0x2590, symBinAddr: 0x100005A0C, symSize: 0x3C }
  - { offsetInCU: 0x1C19B, offset: 0x1C19B, size: 0x8, addend: 0x0, symName: __ZNSt3__112basic_stringIcNS_11char_traitsIcEENS_9allocatorIcEEE14__default_initB7v160006Ev, symObjAddr: 0x25DC, symBinAddr: 0x100005A58, symSize: 0x40 }
  - { offsetInCU: 0x1C1C1, offset: 0x1C1C1, size: 0x8, addend: 0x0, symName: __ZNSt3__117__compressed_pairINS_12basic_stringIcNS_11char_traitsIcEENS_9allocatorIcEEE5__repES5_EC2B7v160006INS_18__default_init_tagESA_EEOT_OT0_, symObjAddr: 0x261C, symBinAddr: 0x100005A98, symSize: 0x3C }
  - { offsetInCU: 0x1C219, offset: 0x1C219, size: 0x8, addend: 0x0, symName: __ZNSt3__122__compressed_pair_elemINS_12basic_stringIcNS_11char_traitsIcEENS_9allocatorIcEEE5__repELi0ELb0EEC2B7v160006ENS_18__default_init_tagE, symObjAddr: 0x2658, symBinAddr: 0x100005AD4, symSize: 0x14 }
  - { offsetInCU: 0x1C24E, offset: 0x1C24E, size: 0x8, addend: 0x0, symName: __ZNSt3__122__compressed_pair_elemINS_9allocatorIcEELi1ELb1EEC2B7v160006ENS_18__default_init_tagE, symObjAddr: 0x266C, symBinAddr: 0x100005AE8, symSize: 0x2C }
  - { offsetInCU: 0x1C283, offset: 0x1C283, size: 0x8, addend: 0x0, symName: __ZNSt3__19allocatorIcEC2B7v160006Ev, symObjAddr: 0x2698, symBinAddr: 0x100005B14, symSize: 0x2C }
  - { offsetInCU: 0x1C2AD, offset: 0x1C2AD, size: 0x8, addend: 0x0, symName: __ZNSt3__116__non_trivial_ifILb1ENS_9allocatorIcEEEC2B7v160006Ev, symObjAddr: 0x26C4, symBinAddr: 0x100005B40, symSize: 0x14 }
  - { offsetInCU: 0x1C2D7, offset: 0x1C2D7, size: 0x8, addend: 0x0, symName: __ZNSt3__117__compressed_pairINS_12basic_stringIcNS_11char_traitsIcEENS_9allocatorIcEEE5__repES5_E5firstB7v160006Ev, symObjAddr: 0x26D8, symBinAddr: 0x100005B54, symSize: 0x24 }
  - { offsetInCU: 0x1C2FD, offset: 0x1C2FD, size: 0x8, addend: 0x0, symName: __ZNSt3__122__compressed_pair_elemINS_12basic_stringIcNS_11char_traitsIcEENS_9allocatorIcEEE5__repELi0ELb0EE5__getB7v160006Ev, symObjAddr: 0x26FC, symBinAddr: 0x100005B78, symSize: 0x14 }
  - { offsetInCU: 0x1C323, offset: 0x1C323, size: 0x8, addend: 0x0, symName: __ZNKSt3__19basic_iosIcNS_11char_traitsIcEEE5widenB7v160006Ec, symObjAddr: 0x2710, symBinAddr: 0x100005B8C, symSize: 0x84 }
  - { offsetInCU: 0x1C38C, offset: 0x1C38C, size: 0x8, addend: 0x0, symName: __ZNKSt3__15ctypeIcE5widenB7v160006Ec, symObjAddr: 0x27C0, symBinAddr: 0x100005C3C, symSize: 0x38 }
  - { offsetInCU: 0x1C3C1, offset: 0x1C3C1, size: 0x8, addend: 0x0, symName: __ZNSt3__114basic_iostreamIcNS_11char_traitsIcEEEC2B7v160006EPNS_15basic_streambufIcS2_EE, symObjAddr: 0x27F8, symBinAddr: 0x100005C74, symSize: 0xAC }
  - { offsetInCU: 0x1C407, offset: 0x1C407, size: 0x8, addend: 0x0, symName: __ZNSt3__115basic_stringbufIcNS_11char_traitsIcEENS_9allocatorIcEEEC1B7v160006ERKNS_12basic_stringIcS2_S4_EEj, symObjAddr: 0x28A4, symBinAddr: 0x100005D20, symSize: 0x3C }
  - { offsetInCU: 0x1C44D, offset: 0x1C44D, size: 0x8, addend: 0x0, symName: __ZNSt3__113basic_ostreamIcNS_11char_traitsIcEEEC2B7v160006Ev, symObjAddr: 0x28E0, symBinAddr: 0x100005D5C, symSize: 0x34 }
  - { offsetInCU: 0x1C484, offset: 0x1C484, size: 0x8, addend: 0x0, symName: __ZNSt3__115basic_stringbufIcNS_11char_traitsIcEENS_9allocatorIcEEEC2B7v160006ERKNS_12basic_stringIcS2_S4_EEj, symObjAddr: 0x2914, symBinAddr: 0x100005D90, symSize: 0xB4 }
  - { offsetInCU: 0x1C4CA, offset: 0x1C4CA, size: 0x8, addend: 0x0, symName: __ZNKSt3__112basic_stringIcNS_11char_traitsIcEENS_9allocatorIcEEE13get_allocatorB7v160006Ev, symObjAddr: 0x29C8, symBinAddr: 0x100005E44, symSize: 0x24 }
  - { offsetInCU: 0x1C4F0, offset: 0x1C4F0, size: 0x8, addend: 0x0, symName: __ZNSt3__112basic_stringIcNS_11char_traitsIcEENS_9allocatorIcEEEC1B7v160006ERKS4_, symObjAddr: 0x29EC, symBinAddr: 0x100005E68, symSize: 0x34 }
  - { offsetInCU: 0x1C529, offset: 0x1C529, size: 0x8, addend: 0x0, symName: __ZNKSt3__112basic_stringIcNS_11char_traitsIcEENS_9allocatorIcEEE7__allocB7v160006Ev, symObjAddr: 0x2A20, symBinAddr: 0x100005E9C, symSize: 0x24 }
  - { offsetInCU: 0x1C54F, offset: 0x1C54F, size: 0x8, addend: 0x0, symName: __ZNKSt3__117__compressed_pairINS_12basic_stringIcNS_11char_traitsIcEENS_9allocatorIcEEE5__repES5_E6secondB7v160006Ev, symObjAddr: 0x2A44, symBinAddr: 0x100005EC0, symSize: 0x24 }
  - { offsetInCU: 0x1C575, offset: 0x1C575, size: 0x8, addend: 0x0, symName: __ZNKSt3__122__compressed_pair_elemINS_9allocatorIcEELi1ELb1EE5__getB7v160006Ev, symObjAddr: 0x2A68, symBinAddr: 0x100005EE4, symSize: 0x14 }
  - { offsetInCU: 0x1C59B, offset: 0x1C59B, size: 0x8, addend: 0x0, symName: __ZNSt3__112basic_stringIcNS_11char_traitsIcEENS_9allocatorIcEEEC2B7v160006ERKS4_, symObjAddr: 0x2A7C, symBinAddr: 0x100005EF8, symSize: 0x50 }
  - { offsetInCU: 0x1C5D4, offset: 0x1C5D4, size: 0x8, addend: 0x0, symName: __ZNSt3__117__compressed_pairINS_12basic_stringIcNS_11char_traitsIcEENS_9allocatorIcEEE5__repES5_EC1B7v160006INS_18__default_init_tagERKS5_EEOT_OT0_, symObjAddr: 0x2ACC, symBinAddr: 0x100005F48, symSize: 0x3C }
  - { offsetInCU: 0x1C62C, offset: 0x1C62C, size: 0x8, addend: 0x0, symName: __ZNSt3__117__compressed_pairINS_12basic_stringIcNS_11char_traitsIcEENS_9allocatorIcEEE5__repES5_EC2B7v160006INS_18__default_init_tagERKS5_EEOT_OT0_, symObjAddr: 0x2B08, symBinAddr: 0x100005F84, symSize: 0x40 }
  - { offsetInCU: 0x1C684, offset: 0x1C684, size: 0x8, addend: 0x0, symName: __ZNSt3__122__compressed_pair_elemINS_9allocatorIcEELi1ELb1EEC2B7v160006IRKS2_vEEOT_, symObjAddr: 0x2B48, symBinAddr: 0x100005FC4, symSize: 0x18 }
  - { offsetInCU: 0x1C6E7, offset: 0x1C6E7, size: 0x8, addend: 0x0, symName: __ZNKSt3__113basic_istreamIcNS_11char_traitsIcEEE6sentrycvbB7v160006Ev, symObjAddr: 0x2B60, symBinAddr: 0x100005FDC, symSize: 0x1C }
  - { offsetInCU: 0x1C70D, offset: 0x1C70D, size: 0x8, addend: 0x0, symName: __ZNSt3__112basic_stringIcNS_11char_traitsIcEENS_9allocatorIcEEE5clearB7v160006Ev, symObjAddr: 0x2B7C, symBinAddr: 0x100005FF8, symSize: 0x88 }
  - { offsetInCU: 0x1C735, offset: 0x1C735, size: 0x8, addend: 0x0, symName: __ZNKSt3__19basic_iosIcNS_11char_traitsIcEEE5rdbufB7v160006Ev, symObjAddr: 0x2C04, symBinAddr: 0x100006080, symSize: 0x24 }
  - { offsetInCU: 0x1C75D, offset: 0x1C75D, size: 0x8, addend: 0x0, symName: __ZNSt3__115basic_streambufIcNS_11char_traitsIcEEE6sbumpcB7v160006Ev, symObjAddr: 0x2C28, symBinAddr: 0x1000060A4, symSize: 0x78 }
  - { offsetInCU: 0x1C783, offset: 0x1C783, size: 0x8, addend: 0x0, symName: __ZNSt3__111char_traitsIcE11eq_int_typeEii, symObjAddr: 0x2CA0, symBinAddr: 0x10000611C, symSize: 0x28 }
  - { offsetInCU: 0x1C7B4, offset: 0x1C7B4, size: 0x8, addend: 0x0, symName: __ZNSt3__111char_traitsIcE12to_char_typeEi, symObjAddr: 0x2CC8, symBinAddr: 0x100006144, symSize: 0x18 }
  - { offsetInCU: 0x1C7D7, offset: 0x1C7D7, size: 0x8, addend: 0x0, symName: __ZNSt3__111char_traitsIcE2eqEcc, symObjAddr: 0x2CE0, symBinAddr: 0x10000615C, symSize: 0x28 }
  - { offsetInCU: 0x1C808, offset: 0x1C808, size: 0x8, addend: 0x0, symName: __ZNKSt3__112basic_stringIcNS_11char_traitsIcEENS_9allocatorIcEEE4sizeB7v160006Ev, symObjAddr: 0x2D08, symBinAddr: 0x100006184, symSize: 0x54 }
  - { offsetInCU: 0x1C82E, offset: 0x1C82E, size: 0x8, addend: 0x0, symName: __ZNKSt3__112basic_stringIcNS_11char_traitsIcEENS_9allocatorIcEEE8max_sizeB7v160006Ev, symObjAddr: 0x2D5C, symBinAddr: 0x1000061D8, symSize: 0xAC }
  - { offsetInCU: 0x1C881, offset: 0x1C881, size: 0x8, addend: 0x0, symName: __ZNSt3__18ios_base18__setstate_nothrowB7v160006Ej, symObjAddr: 0x2E08, symBinAddr: 0x100006284, symSize: 0x64 }
  - { offsetInCU: 0x1C8B6, offset: 0x1C8B6, size: 0x8, addend: 0x0, symName: __ZNKSt3__19basic_iosIcNS_11char_traitsIcEEE10exceptionsB7v160006Ev, symObjAddr: 0x2E6C, symBinAddr: 0x1000062E8, symSize: 0x24 }
  - { offsetInCU: 0x1C8DC, offset: 0x1C8DC, size: 0x8, addend: 0x0, symName: __ZNKSt3__112basic_stringIcNS_11char_traitsIcEENS_9allocatorIcEEE9__is_longB7v160006Ev, symObjAddr: 0x2EA0, symBinAddr: 0x10000631C, symSize: 0x38 }
  - { offsetInCU: 0x1C902, offset: 0x1C902, size: 0x8, addend: 0x0, symName: __ZNSt3__111char_traitsIcE6assignERcRKc, symObjAddr: 0x2ED8, symBinAddr: 0x100006354, symSize: 0x24 }
  - { offsetInCU: 0x1C933, offset: 0x1C933, size: 0x8, addend: 0x0, symName: __ZNSt3__112basic_stringIcNS_11char_traitsIcEENS_9allocatorIcEEE18__get_long_pointerB7v160006Ev, symObjAddr: 0x2EFC, symBinAddr: 0x100006378, symSize: 0x28 }
  - { offsetInCU: 0x1C959, offset: 0x1C959, size: 0x8, addend: 0x0, symName: __ZNSt3__112basic_stringIcNS_11char_traitsIcEENS_9allocatorIcEEE15__set_long_sizeB7v160006Em, symObjAddr: 0x2F24, symBinAddr: 0x1000063A0, symSize: 0x38 }
  - { offsetInCU: 0x1C98E, offset: 0x1C98E, size: 0x8, addend: 0x0, symName: __ZNSt3__112basic_stringIcNS_11char_traitsIcEENS_9allocatorIcEEE19__get_short_pointerB7v160006Ev, symObjAddr: 0x2F5C, symBinAddr: 0x1000063D8, symSize: 0x28 }
  - { offsetInCU: 0x1C9B4, offset: 0x1C9B4, size: 0x8, addend: 0x0, symName: __ZNSt3__112basic_stringIcNS_11char_traitsIcEENS_9allocatorIcEEE16__set_short_sizeB7v160006Em, symObjAddr: 0x2F84, symBinAddr: 0x100006400, symSize: 0x78 }
  - { offsetInCU: 0x1C9E9, offset: 0x1C9E9, size: 0x8, addend: 0x0, symName: __ZNKSt3__117__compressed_pairINS_12basic_stringIcNS_11char_traitsIcEENS_9allocatorIcEEE5__repES5_E5firstB7v160006Ev, symObjAddr: 0x2FFC, symBinAddr: 0x100006478, symSize: 0x24 }
  - { offsetInCU: 0x1CA0F, offset: 0x1CA0F, size: 0x8, addend: 0x0, symName: __ZNKSt3__122__compressed_pair_elemINS_12basic_stringIcNS_11char_traitsIcEENS_9allocatorIcEEE5__repELi0ELb0EE5__getB7v160006Ev, symObjAddr: 0x3020, symBinAddr: 0x10000649C, symSize: 0x14 }
  - { offsetInCU: 0x1CA35, offset: 0x1CA35, size: 0x8, addend: 0x0, symName: __ZNSt3__114pointer_traitsIPcE10pointer_toB7v160006ERc, symObjAddr: 0x3034, symBinAddr: 0x1000064B0, symSize: 0x14 }
  - { offsetInCU: 0x1CA58, offset: 0x1CA58, size: 0x8, addend: 0x0, symName: __ZNKSt3__18ios_base5rdbufB7v160006Ev, symObjAddr: 0x3048, symBinAddr: 0x1000064C4, symSize: 0x18 }
  - { offsetInCU: 0x1CA7E, offset: 0x1CA7E, size: 0x8, addend: 0x0, symName: __ZNSt3__111char_traitsIcE11to_int_typeEc, symObjAddr: 0x3060, symBinAddr: 0x1000064DC, symSize: 0x14 }
  - { offsetInCU: 0x1CAA1, offset: 0x1CAA1, size: 0x8, addend: 0x0, symName: __ZNKSt3__112basic_stringIcNS_11char_traitsIcEENS_9allocatorIcEEE15__get_long_sizeB7v160006Ev, symObjAddr: 0x3074, symBinAddr: 0x1000064F0, symSize: 0x28 }
  - { offsetInCU: 0x1CAC7, offset: 0x1CAC7, size: 0x8, addend: 0x0, symName: __ZNKSt3__112basic_stringIcNS_11char_traitsIcEENS_9allocatorIcEEE16__get_short_sizeB7v160006Ev, symObjAddr: 0x309C, symBinAddr: 0x100006518, symSize: 0x34 }
  - { offsetInCU: 0x1CAF8, offset: 0x1CAF8, size: 0x8, addend: 0x0, symName: __ZNSt3__116allocator_traitsINS_9allocatorIcEEE8max_sizeB7v160006IS2_vEEmRKS2_, symObjAddr: 0x30D0, symBinAddr: 0x10000654C, symSize: 0x24 }
  - { offsetInCU: 0x1CB26, offset: 0x1CB26, size: 0x8, addend: 0x0, symName: __ZNSt3__114numeric_limitsImE3maxB7v160006Ev, symObjAddr: 0x30F4, symBinAddr: 0x100006570, symSize: 0x14 }
  - { offsetInCU: 0x1CB3A, offset: 0x1CB3A, size: 0x8, addend: 0x0, symName: __ZNKSt3__19allocatorIcE8max_sizeB7v160006Ev, symObjAddr: 0x3108, symBinAddr: 0x100006584, symSize: 0x14 }
  - { offsetInCU: 0x1CB60, offset: 0x1CB60, size: 0x8, addend: 0x0, symName: __ZNSt3__123__libcpp_numeric_limitsImLb1EE3maxB7v160006Ev, symObjAddr: 0x311C, symBinAddr: 0x100006598, symSize: 0x8 }
  - { offsetInCU: 0x1CB74, offset: 0x1CB74, size: 0x8, addend: 0x0, symName: __ZNKSt3__18ios_base10exceptionsB7v160006Ev, symObjAddr: 0x3124, symBinAddr: 0x1000065A0, symSize: 0x18 }
  - { offsetInCU: 0x1CB9C, offset: 0x1CB9C, size: 0x8, addend: 0x0, symName: __ZNSt3__16vectorIN2cv3MatENS_9allocatorIS2_EEE9__end_capB7v160006Ev, symObjAddr: 0x313C, symBinAddr: 0x1000065B8, symSize: 0x28 }
  - { offsetInCU: 0x1CBC2, offset: 0x1CBC2, size: 0x8, addend: 0x0, symName: __ZNSt3__16vectorIN2cv3MatENS_9allocatorIS2_EEE22__construct_one_at_endB7v160006IJS2_EEEvDpOT_, symObjAddr: 0x3164, symBinAddr: 0x1000065E0, symSize: 0x90 }
  - { offsetInCU: 0x1CC11, offset: 0x1CC11, size: 0x8, addend: 0x0, symName: __ZNSt3__16vectorIN2cv3MatENS_9allocatorIS2_EEE21__push_back_slow_pathIS2_EEvOT_, symObjAddr: 0x31F4, symBinAddr: 0x100006670, symSize: 0xD8 }
  - { offsetInCU: 0x1CC6F, offset: 0x1CC6F, size: 0x8, addend: 0x0, symName: __ZNSt3__117__compressed_pairIPN2cv3MatENS_9allocatorIS2_EEE5firstB7v160006Ev, symObjAddr: 0x32CC, symBinAddr: 0x100006748, symSize: 0x24 }
  - { offsetInCU: 0x1CC95, offset: 0x1CC95, size: 0x8, addend: 0x0, symName: __ZNSt3__122__compressed_pair_elemIPN2cv3MatELi0ELb0EE5__getB7v160006Ev, symObjAddr: 0x32F0, symBinAddr: 0x10000676C, symSize: 0x14 }
  - { offsetInCU: 0x1CCD6, offset: 0x1CCD6, size: 0x8, addend: 0x0, symName: __ZNSt3__16vectorIN2cv3MatENS_9allocatorIS2_EEE21_ConstructTransactionC1B7v160006ERS5_m, symObjAddr: 0x3304, symBinAddr: 0x100006780, symSize: 0x3C }
  - { offsetInCU: 0x1CD1E, offset: 0x1CD1E, size: 0x8, addend: 0x0, symName: __ZNSt3__116allocator_traitsINS_9allocatorIN2cv3MatEEEE9constructB7v160006IS3_JS3_EvEEvRS4_PT_DpOT0_, symObjAddr: 0x3340, symBinAddr: 0x1000067BC, symSize: 0x34 }
  - { offsetInCU: 0x1CD75, offset: 0x1CD75, size: 0x8, addend: 0x0, symName: __ZNSt3__16vectorIN2cv3MatENS_9allocatorIS2_EEE7__allocB7v160006Ev, symObjAddr: 0x3374, symBinAddr: 0x1000067F0, symSize: 0x28 }
  - { offsetInCU: 0x1CD9B, offset: 0x1CD9B, size: 0x8, addend: 0x0, symName: __ZNSt3__16vectorIN2cv3MatENS_9allocatorIS2_EEE21_ConstructTransactionD1B7v160006Ev, symObjAddr: 0x33B0, symBinAddr: 0x10000682C, symSize: 0x2C }
  - { offsetInCU: 0x1CDC5, offset: 0x1CDC5, size: 0x8, addend: 0x0, symName: __ZNSt3__16vectorIN2cv3MatENS_9allocatorIS2_EEE21_ConstructTransactionC2B7v160006ERS5_m, symObjAddr: 0x33DC, symBinAddr: 0x100006858, symSize: 0x4C }
  - { offsetInCU: 0x1CE0D, offset: 0x1CE0D, size: 0x8, addend: 0x0, symName: __ZNSt3__19allocatorIN2cv3MatEE9constructB7v160006IS2_JS2_EEEvPT_DpOT0_, symObjAddr: 0x3428, symBinAddr: 0x1000068A4, symSize: 0x30 }
  - { offsetInCU: 0x1CE63, offset: 0x1CE63, size: 0x8, addend: 0x0, symName: __ZNSt3__117__compressed_pairIPN2cv3MatENS_9allocatorIS2_EEE6secondB7v160006Ev, symObjAddr: 0x3458, symBinAddr: 0x1000068D4, symSize: 0x24 }
  - { offsetInCU: 0x1CE89, offset: 0x1CE89, size: 0x8, addend: 0x0, symName: __ZNSt3__122__compressed_pair_elemINS_9allocatorIN2cv3MatEEELi1ELb1EE5__getB7v160006Ev, symObjAddr: 0x347C, symBinAddr: 0x1000068F8, symSize: 0x14 }
  - { offsetInCU: 0x1CEAF, offset: 0x1CEAF, size: 0x8, addend: 0x0, symName: __ZNSt3__16vectorIN2cv3MatENS_9allocatorIS2_EEE21_ConstructTransactionD2B7v160006Ev, symObjAddr: 0x3490, symBinAddr: 0x10000690C, symSize: 0x20 }
  - { offsetInCU: 0x1CED9, offset: 0x1CED9, size: 0x8, addend: 0x0, symName: __ZNKSt3__16vectorIN2cv3MatENS_9allocatorIS2_EEE11__recommendB7v160006Em, symObjAddr: 0x34B0, symBinAddr: 0x10000692C, symSize: 0xB4 }
  - { offsetInCU: 0x1CF2E, offset: 0x1CF2E, size: 0x8, addend: 0x0, symName: __ZNSt3__114__split_bufferIN2cv3MatERNS_9allocatorIS2_EEEC1EmmS5_, symObjAddr: 0x3564, symBinAddr: 0x1000069E0, symSize: 0x44 }
  - { offsetInCU: 0x1CF84, offset: 0x1CF84, size: 0x8, addend: 0x0, symName: __ZNSt3__114__split_bufferIN2cv3MatERNS_9allocatorIS2_EEED1Ev, symObjAddr: 0x36C0, symBinAddr: 0x100006B3C, symSize: 0x2C }
  - { offsetInCU: 0x1CFB0, offset: 0x1CFB0, size: 0x8, addend: 0x0, symName: __ZNKSt3__16vectorIN2cv3MatENS_9allocatorIS2_EEE8max_sizeEv, symObjAddr: 0x36EC, symBinAddr: 0x100006B68, symSize: 0x60 }
  - { offsetInCU: 0x1CFD8, offset: 0x1CFD8, size: 0x8, addend: 0x0, symName: __ZNKSt3__16vectorIN2cv3MatENS_9allocatorIS2_EEE20__throw_length_errorB7v160006Ev, symObjAddr: 0x374C, symBinAddr: 0x100006BC8, symSize: 0x1C }
  - { offsetInCU: 0x1CFFE, offset: 0x1CFFE, size: 0x8, addend: 0x0, symName: __ZNKSt3__16vectorIN2cv3MatENS_9allocatorIS2_EEE8capacityB7v160006Ev, symObjAddr: 0x3768, symBinAddr: 0x100006BE4, symSize: 0x40 }
  - { offsetInCU: 0x1D02F, offset: 0x1D02F, size: 0x8, addend: 0x0, symName: __ZNSt3__116allocator_traitsINS_9allocatorIN2cv3MatEEEE8max_sizeB7v160006IS4_vEEmRKS4_, symObjAddr: 0x3800, symBinAddr: 0x100006C7C, symSize: 0x24 }
  - { offsetInCU: 0x1D05D, offset: 0x1D05D, size: 0x8, addend: 0x0, symName: __ZNKSt3__16vectorIN2cv3MatENS_9allocatorIS2_EEE7__allocB7v160006Ev, symObjAddr: 0x3824, symBinAddr: 0x100006CA0, symSize: 0x28 }
  - { offsetInCU: 0x1D083, offset: 0x1D083, size: 0x8, addend: 0x0, symName: __ZNSt3__114numeric_limitsIlE3maxB7v160006Ev, symObjAddr: 0x384C, symBinAddr: 0x100006CC8, symSize: 0x14 }
  - { offsetInCU: 0x1D0A1, offset: 0x1D0A1, size: 0x8, addend: 0x0, symName: __ZNKSt3__16__lessImmEclB7v160006ERKmS3_, symObjAddr: 0x38B4, symBinAddr: 0x100006D30, symSize: 0x34 }
  - { offsetInCU: 0x1D0E3, offset: 0x1D0E3, size: 0x8, addend: 0x0, symName: __ZNKSt3__19allocatorIN2cv3MatEE8max_sizeB7v160006Ev, symObjAddr: 0x38E8, symBinAddr: 0x100006D64, symSize: 0x18 }
  - { offsetInCU: 0x1D109, offset: 0x1D109, size: 0x8, addend: 0x0, symName: __ZNKSt3__117__compressed_pairIPN2cv3MatENS_9allocatorIS2_EEE6secondB7v160006Ev, symObjAddr: 0x3900, symBinAddr: 0x100006D7C, symSize: 0x24 }
  - { offsetInCU: 0x1D12F, offset: 0x1D12F, size: 0x8, addend: 0x0, symName: __ZNKSt3__122__compressed_pair_elemINS_9allocatorIN2cv3MatEEELi1ELb1EE5__getB7v160006Ev, symObjAddr: 0x3924, symBinAddr: 0x100006DA0, symSize: 0x14 }
  - { offsetInCU: 0x1D155, offset: 0x1D155, size: 0x8, addend: 0x0, symName: __ZNSt3__123__libcpp_numeric_limitsIlLb1EE3maxB7v160006Ev, symObjAddr: 0x3938, symBinAddr: 0x100006DB4, symSize: 0x8 }
  - { offsetInCU: 0x1D169, offset: 0x1D169, size: 0x8, addend: 0x0, symName: __ZNSt12length_errorC1B7v160006EPKc, symObjAddr: 0x39A4, symBinAddr: 0x100006E20, symSize: 0x34 }
  - { offsetInCU: 0x1D1A1, offset: 0x1D1A1, size: 0x8, addend: 0x0, symName: __ZNSt12length_errorC2B7v160006EPKc, symObjAddr: 0x39D8, symBinAddr: 0x100006E54, symSize: 0x4C }
  - { offsetInCU: 0x1D1D9, offset: 0x1D1D9, size: 0x8, addend: 0x0, symName: __ZNKSt3__16vectorIN2cv3MatENS_9allocatorIS2_EEE9__end_capB7v160006Ev, symObjAddr: 0x3A24, symBinAddr: 0x100006EA0, symSize: 0x28 }
  - { offsetInCU: 0x1D1FF, offset: 0x1D1FF, size: 0x8, addend: 0x0, symName: __ZNKSt3__117__compressed_pairIPN2cv3MatENS_9allocatorIS2_EEE5firstB7v160006Ev, symObjAddr: 0x3A4C, symBinAddr: 0x100006EC8, symSize: 0x24 }
  - { offsetInCU: 0x1D225, offset: 0x1D225, size: 0x8, addend: 0x0, symName: __ZNKSt3__122__compressed_pair_elemIPN2cv3MatELi0ELb0EE5__getB7v160006Ev, symObjAddr: 0x3A70, symBinAddr: 0x100006EEC, symSize: 0x14 }
  - { offsetInCU: 0x1D24B, offset: 0x1D24B, size: 0x8, addend: 0x0, symName: __ZNSt3__114__split_bufferIN2cv3MatERNS_9allocatorIS2_EEEC2EmmS5_, symObjAddr: 0x3AD8, symBinAddr: 0x100006F54, symSize: 0xE0 }
  - { offsetInCU: 0x1D2C5, offset: 0x1D2C5, size: 0x8, addend: 0x0, symName: __ZNSt3__117__compressed_pairIPN2cv3MatERNS_9allocatorIS2_EEEC1B7v160006IDnS6_EEOT_OT0_, symObjAddr: 0x3BB8, symBinAddr: 0x100007034, symSize: 0x3C }
  - { offsetInCU: 0x1D31D, offset: 0x1D31D, size: 0x8, addend: 0x0, symName: __ZNSt3__114__split_bufferIN2cv3MatERNS_9allocatorIS2_EEE7__allocB7v160006Ev, symObjAddr: 0x3C34, symBinAddr: 0x1000070B0, symSize: 0x28 }
  - { offsetInCU: 0x1D343, offset: 0x1D343, size: 0x8, addend: 0x0, symName: __ZNSt3__114__split_bufferIN2cv3MatERNS_9allocatorIS2_EEE9__end_capB7v160006Ev, symObjAddr: 0x3C5C, symBinAddr: 0x1000070D8, symSize: 0x28 }
  - { offsetInCU: 0x1D369, offset: 0x1D369, size: 0x8, addend: 0x0, symName: __ZNSt3__117__compressed_pairIPN2cv3MatERNS_9allocatorIS2_EEEC2B7v160006IDnS6_EEOT_OT0_, symObjAddr: 0x3C84, symBinAddr: 0x100007100, symSize: 0x48 }
  - { offsetInCU: 0x1D3C1, offset: 0x1D3C1, size: 0x8, addend: 0x0, symName: __ZNSt3__122__compressed_pair_elemIPN2cv3MatELi0ELb0EEC2B7v160006IDnvEEOT_, symObjAddr: 0x3CCC, symBinAddr: 0x100007148, symSize: 0x1C }
  - { offsetInCU: 0x1D403, offset: 0x1D403, size: 0x8, addend: 0x0, symName: __ZNSt3__122__compressed_pair_elemIRNS_9allocatorIN2cv3MatEEELi1ELb0EEC2B7v160006IS5_vEEOT_, symObjAddr: 0x3CE8, symBinAddr: 0x100007164, symSize: 0x20 }
  - { offsetInCU: 0x1D445, offset: 0x1D445, size: 0x8, addend: 0x0, symName: __ZNSt3__19allocatorIN2cv3MatEE8allocateB7v160006Em, symObjAddr: 0x3D08, symBinAddr: 0x100007184, symSize: 0x5C }
  - { offsetInCU: 0x1D479, offset: 0x1D479, size: 0x8, addend: 0x0, symName: __ZNSt3__117__compressed_pairIPN2cv3MatERNS_9allocatorIS2_EEE6secondB7v160006Ev, symObjAddr: 0x3DE4, symBinAddr: 0x100007260, symSize: 0x28 }
  - { offsetInCU: 0x1D49F, offset: 0x1D49F, size: 0x8, addend: 0x0, symName: __ZNSt3__122__compressed_pair_elemIRNS_9allocatorIN2cv3MatEEELi1ELb0EE5__getB7v160006Ev, symObjAddr: 0x3E0C, symBinAddr: 0x100007288, symSize: 0x18 }
  - { offsetInCU: 0x1D4C5, offset: 0x1D4C5, size: 0x8, addend: 0x0, symName: __ZNSt3__117__compressed_pairIPN2cv3MatERNS_9allocatorIS2_EEE5firstB7v160006Ev, symObjAddr: 0x3E24, symBinAddr: 0x1000072A0, symSize: 0x24 }
  - { offsetInCU: 0x1D4EB, offset: 0x1D4EB, size: 0x8, addend: 0x0, symName: __ZNKSt3__16vectorIN2cv3MatENS_9allocatorIS2_EEE17__annotate_deleteB7v160006Ev, symObjAddr: 0x3E48, symBinAddr: 0x1000072C4, symSize: 0xD4 }
  - { offsetInCU: 0x1D511, offset: 0x1D511, size: 0x8, addend: 0x0, symName: __ZNSt3__116reverse_iteratorIPN2cv3MatEEC1B7v160006ES3_, symObjAddr: 0x4048, symBinAddr: 0x1000074C4, symSize: 0x34 }
  - { offsetInCU: 0x1D549, offset: 0x1D549, size: 0x8, addend: 0x0, symName: __ZNKSt3__116reverse_iteratorIPN2cv3MatEE4baseB7v160006Ev, symObjAddr: 0x407C, symBinAddr: 0x1000074F8, symSize: 0x18 }
  - { offsetInCU: 0x1D56F, offset: 0x1D56F, size: 0x8, addend: 0x0, symName: __ZNKSt3__16vectorIN2cv3MatENS_9allocatorIS2_EEE14__annotate_newB7v160006Em, symObjAddr: 0x40D0, symBinAddr: 0x10000754C, symSize: 0xC8 }
  - { offsetInCU: 0x1D5A4, offset: 0x1D5A4, size: 0x8, addend: 0x0, symName: __ZNKSt3__16vectorIN2cv3MatENS_9allocatorIS2_EEE31__annotate_contiguous_containerB7v160006EPKvS7_S7_S7_, symObjAddr: 0x41A8, symBinAddr: 0x100007624, symSize: 0x20 }
  - { offsetInCU: 0x1D5F6, offset: 0x1D5F6, size: 0x8, addend: 0x0, symName: __ZNKSt3__16vectorIN2cv3MatENS_9allocatorIS2_EEE4dataB7v160006Ev, symObjAddr: 0x41C8, symBinAddr: 0x100007644, symSize: 0x28 }
  - { offsetInCU: 0x1D61C, offset: 0x1D61C, size: 0x8, addend: 0x0, symName: __ZNSt3__129_AllocatorDestroyRangeReverseINS_9allocatorIN2cv3MatEEENS_16reverse_iteratorIPS3_EEEC1B7v160006ERS4_RS7_SA_, symObjAddr: 0x423C, symBinAddr: 0x1000076B8, symSize: 0x44 }
  - { offsetInCU: 0x1D673, offset: 0x1D673, size: 0x8, addend: 0x0, symName: __ZNSt3__116allocator_traitsINS_9allocatorIN2cv3MatEEEE9constructB7v160006IS3_JRKS3_EvEEvRS4_PT_DpOT0_, symObjAddr: 0x42C8, symBinAddr: 0x100007744, symSize: 0x34 }
  - { offsetInCU: 0x1D6CA, offset: 0x1D6CA, size: 0x8, addend: 0x0, symName: __ZNKSt3__116reverse_iteratorIPN2cv3MatEEdeB7v160006Ev, symObjAddr: 0x4320, symBinAddr: 0x10000779C, symSize: 0x28 }
  - { offsetInCU: 0x1D6FE, offset: 0x1D6FE, size: 0x8, addend: 0x0, symName: __ZNSt3__116reverse_iteratorIPN2cv3MatEEppB7v160006Ev, symObjAddr: 0x4348, symBinAddr: 0x1000077C4, symSize: 0x20 }
  - { offsetInCU: 0x1D724, offset: 0x1D724, size: 0x8, addend: 0x0, symName: __ZNSt3__128__exception_guard_exceptionsINS_29_AllocatorDestroyRangeReverseINS_9allocatorIN2cv3MatEEENS_16reverse_iteratorIPS4_EEEEE10__completeB7v160006Ev, symObjAddr: 0x4368, symBinAddr: 0x1000077E4, symSize: 0x1C }
  - { offsetInCU: 0x1D74A, offset: 0x1D74A, size: 0x8, addend: 0x0, symName: __ZNSt3__128__exception_guard_exceptionsINS_29_AllocatorDestroyRangeReverseINS_9allocatorIN2cv3MatEEENS_16reverse_iteratorIPS4_EEEEED1B7v160006Ev, symObjAddr: 0x4384, symBinAddr: 0x100007800, symSize: 0x2C }
  - { offsetInCU: 0x1D774, offset: 0x1D774, size: 0x8, addend: 0x0, symName: __ZNSt3__128__exception_guard_exceptionsINS_29_AllocatorDestroyRangeReverseINS_9allocatorIN2cv3MatEEENS_16reverse_iteratorIPS4_EEEEEC1B7v160006ES9_, symObjAddr: 0x43B0, symBinAddr: 0x10000782C, symSize: 0x34 }
  - { offsetInCU: 0x1D7AD, offset: 0x1D7AD, size: 0x8, addend: 0x0, symName: __ZNSt3__128__exception_guard_exceptionsINS_29_AllocatorDestroyRangeReverseINS_9allocatorIN2cv3MatEEENS_16reverse_iteratorIPS4_EEEEEC2B7v160006ES9_, symObjAddr: 0x43E4, symBinAddr: 0x100007860, symSize: 0x30 }
  - { offsetInCU: 0x1D7E6, offset: 0x1D7E6, size: 0x8, addend: 0x0, symName: __ZNSt3__129_AllocatorDestroyRangeReverseINS_9allocatorIN2cv3MatEEENS_16reverse_iteratorIPS3_EEEC2B7v160006ERS4_RS7_SA_, symObjAddr: 0x4414, symBinAddr: 0x100007890, symSize: 0x38 }
  - { offsetInCU: 0x1D83D, offset: 0x1D83D, size: 0x8, addend: 0x0, symName: __ZNSt3__19allocatorIN2cv3MatEE9constructB7v160006IS2_JRKS2_EEEvPT_DpOT0_, symObjAddr: 0x444C, symBinAddr: 0x1000078C8, symSize: 0x30 }
  - { offsetInCU: 0x1D899, offset: 0x1D899, size: 0x8, addend: 0x0, symName: __ZNSt3__119__to_address_helperINS_16reverse_iteratorIPN2cv3MatEEEvE6__callB7v160006ERKS5_, symObjAddr: 0x447C, symBinAddr: 0x1000078F8, symSize: 0x38 }
  - { offsetInCU: 0x1D8BC, offset: 0x1D8BC, size: 0x8, addend: 0x0, symName: __ZNKSt3__116reverse_iteratorIPN2cv3MatEEptB7v160006Ev, symObjAddr: 0x44B4, symBinAddr: 0x100007930, symSize: 0x24 }
  - { offsetInCU: 0x1D8E2, offset: 0x1D8E2, size: 0x8, addend: 0x0, symName: __ZNSt3__128__exception_guard_exceptionsINS_29_AllocatorDestroyRangeReverseINS_9allocatorIN2cv3MatEEENS_16reverse_iteratorIPS4_EEEEED2B7v160006Ev, symObjAddr: 0x44D8, symBinAddr: 0x100007954, symSize: 0x50 }
  - { offsetInCU: 0x1D90C, offset: 0x1D90C, size: 0x8, addend: 0x0, symName: __ZNKSt3__129_AllocatorDestroyRangeReverseINS_9allocatorIN2cv3MatEEENS_16reverse_iteratorIPS3_EEEclB7v160006Ev, symObjAddr: 0x4528, symBinAddr: 0x1000079A4, symSize: 0xB4 }
  - { offsetInCU: 0x1D933, offset: 0x1D933, size: 0x8, addend: 0x0, symName: __ZNSt3__116reverse_iteratorINS0_IPN2cv3MatEEEEC1B7v160006ES4_, symObjAddr: 0x464C, symBinAddr: 0x100007AC8, symSize: 0x3C }
  - { offsetInCU: 0x1D96B, offset: 0x1D96B, size: 0x8, addend: 0x0, symName: __ZNSt3__116allocator_traitsINS_9allocatorIN2cv3MatEEEE7destroyB7v160006IS3_vEEvRS4_PT_, symObjAddr: 0x46E8, symBinAddr: 0x100007B64, symSize: 0x2C }
  - { offsetInCU: 0x1D9A8, offset: 0x1D9A8, size: 0x8, addend: 0x0, symName: __ZNSt3__116reverse_iteratorINS0_IPN2cv3MatEEEEppB7v160006Ev, symObjAddr: 0x4738, symBinAddr: 0x100007BB4, symSize: 0x30 }
  - { offsetInCU: 0x1D9CE, offset: 0x1D9CE, size: 0x8, addend: 0x0, symName: __ZNKSt3__116reverse_iteratorINS0_IPN2cv3MatEEEE4baseB7v160006Ev, symObjAddr: 0x4768, symBinAddr: 0x100007BE4, symSize: 0x24 }
  - { offsetInCU: 0x1D9F4, offset: 0x1D9F4, size: 0x8, addend: 0x0, symName: __ZNSt3__19allocatorIN2cv3MatEE7destroyB7v160006EPS2_, symObjAddr: 0x478C, symBinAddr: 0x100007C08, symSize: 0x28 }
  - { offsetInCU: 0x1DA2E, offset: 0x1DA2E, size: 0x8, addend: 0x0, symName: __ZNSt3__119__to_address_helperINS_16reverse_iteratorINS1_IPN2cv3MatEEEEEvE6__callB7v160006ERKS6_, symObjAddr: 0x47B4, symBinAddr: 0x100007C30, symSize: 0x38 }
  - { offsetInCU: 0x1DA51, offset: 0x1DA51, size: 0x8, addend: 0x0, symName: __ZNKSt3__116reverse_iteratorINS0_IPN2cv3MatEEEEptB7v160006Ev, symObjAddr: 0x47EC, symBinAddr: 0x100007C68, symSize: 0x24 }
  - { offsetInCU: 0x1DA77, offset: 0x1DA77, size: 0x8, addend: 0x0, symName: __ZNKSt3__116reverse_iteratorINS0_IPN2cv3MatEEEEdeB7v160006Ev, symObjAddr: 0x4810, symBinAddr: 0x100007C8C, symSize: 0x34 }
  - { offsetInCU: 0x1DAAB, offset: 0x1DAAB, size: 0x8, addend: 0x0, symName: __ZNSt3__116reverse_iteratorIPN2cv3MatEEmmB7v160006Ev, symObjAddr: 0x4844, symBinAddr: 0x100007CC0, symSize: 0x20 }
  - { offsetInCU: 0x1DAD1, offset: 0x1DAD1, size: 0x8, addend: 0x0, symName: __ZNSt3__116reverse_iteratorINS0_IPN2cv3MatEEEEC2B7v160006ES4_, symObjAddr: 0x4864, symBinAddr: 0x100007CE0, symSize: 0x2C }
  - { offsetInCU: 0x1DB09, offset: 0x1DB09, size: 0x8, addend: 0x0, symName: __ZNSt3__116reverse_iteratorIPN2cv3MatEEC2B7v160006ES3_, symObjAddr: 0x4890, symBinAddr: 0x100007D0C, symSize: 0x28 }
  - { offsetInCU: 0x1DB41, offset: 0x1DB41, size: 0x8, addend: 0x0, symName: __ZNSt3__114__split_bufferIN2cv3MatERNS_9allocatorIS2_EEED2Ev, symObjAddr: 0x48B8, symBinAddr: 0x100007D34, symSize: 0x8C }
  - { offsetInCU: 0x1DB6D, offset: 0x1DB6D, size: 0x8, addend: 0x0, symName: __ZNSt3__114__split_bufferIN2cv3MatERNS_9allocatorIS2_EEE5clearB7v160006Ev, symObjAddr: 0x4944, symBinAddr: 0x100007DC0, symSize: 0x28 }
  - { offsetInCU: 0x1DB93, offset: 0x1DB93, size: 0x8, addend: 0x0, symName: __ZNSt3__116allocator_traitsINS_9allocatorIN2cv3MatEEEE10deallocateB7v160006ERS4_PS3_m, symObjAddr: 0x496C, symBinAddr: 0x100007DE8, symSize: 0x34 }
  - { offsetInCU: 0x1DBD5, offset: 0x1DBD5, size: 0x8, addend: 0x0, symName: __ZNKSt3__114__split_bufferIN2cv3MatERNS_9allocatorIS2_EEE8capacityB7v160006Ev, symObjAddr: 0x49A0, symBinAddr: 0x100007E1C, symSize: 0x40 }
  - { offsetInCU: 0x1DBFB, offset: 0x1DBFB, size: 0x8, addend: 0x0, symName: __ZNSt3__114__split_bufferIN2cv3MatERNS_9allocatorIS2_EEE17__destruct_at_endB7v160006EPS2_, symObjAddr: 0x49E0, symBinAddr: 0x100007E5C, symSize: 0x2C }
  - { offsetInCU: 0x1DC2F, offset: 0x1DC2F, size: 0x8, addend: 0x0, symName: __ZNSt3__114__split_bufferIN2cv3MatERNS_9allocatorIS2_EEE17__destruct_at_endB7v160006EPS2_NS_17integral_constantIbLb0EEE, symObjAddr: 0x4A0C, symBinAddr: 0x100007E88, symSize: 0x80 }
  - { offsetInCU: 0x1DC70, offset: 0x1DC70, size: 0x8, addend: 0x0, symName: __ZNSt3__19allocatorIN2cv3MatEE10deallocateB7v160006EPS2_m, symObjAddr: 0x4A8C, symBinAddr: 0x100007F08, symSize: 0x44 }
  - { offsetInCU: 0x1DCB2, offset: 0x1DCB2, size: 0x8, addend: 0x0, symName: __ZNKSt3__114__split_bufferIN2cv3MatERNS_9allocatorIS2_EEE9__end_capB7v160006Ev, symObjAddr: 0x4B4C, symBinAddr: 0x100007FC8, symSize: 0x28 }
  - { offsetInCU: 0x1DCD8, offset: 0x1DCD8, size: 0x8, addend: 0x0, symName: __ZNKSt3__117__compressed_pairIPN2cv3MatERNS_9allocatorIS2_EEE5firstB7v160006Ev, symObjAddr: 0x4B74, symBinAddr: 0x100007FF0, symSize: 0x24 }
  - { offsetInCU: 0x1DCFE, offset: 0x1DCFE, size: 0x8, addend: 0x0, symName: __ZNSt3__16vectorIiNS_9allocatorIiEEE9__end_capB7v160006Ev, symObjAddr: 0x4B98, symBinAddr: 0x100008014, symSize: 0x28 }
  - { offsetInCU: 0x1DD2A, offset: 0x1DD2A, size: 0x8, addend: 0x0, symName: __ZNSt3__16vectorIiNS_9allocatorIiEEE22__construct_one_at_endB7v160006IJiEEEvDpOT_, symObjAddr: 0x4BC0, symBinAddr: 0x10000803C, symSize: 0x90 }
  - { offsetInCU: 0x1DD79, offset: 0x1DD79, size: 0x8, addend: 0x0, symName: __ZNSt3__16vectorIiNS_9allocatorIiEEE21__push_back_slow_pathIiEEvOT_, symObjAddr: 0x4C50, symBinAddr: 0x1000080CC, symSize: 0xD8 }
  - { offsetInCU: 0x1DDD7, offset: 0x1DDD7, size: 0x8, addend: 0x0, symName: __ZNSt3__117__compressed_pairIPiNS_9allocatorIiEEE5firstB7v160006Ev, symObjAddr: 0x4D28, symBinAddr: 0x1000081A4, symSize: 0x24 }
  - { offsetInCU: 0x1DDFD, offset: 0x1DDFD, size: 0x8, addend: 0x0, symName: __ZNSt3__122__compressed_pair_elemIPiLi0ELb0EE5__getB7v160006Ev, symObjAddr: 0x4D4C, symBinAddr: 0x1000081C8, symSize: 0x14 }
  - { offsetInCU: 0x1DE3E, offset: 0x1DE3E, size: 0x8, addend: 0x0, symName: __ZNSt3__16vectorIiNS_9allocatorIiEEE21_ConstructTransactionC1B7v160006ERS3_m, symObjAddr: 0x4D60, symBinAddr: 0x1000081DC, symSize: 0x3C }
  - { offsetInCU: 0x1DE86, offset: 0x1DE86, size: 0x8, addend: 0x0, symName: __ZNSt3__116allocator_traitsINS_9allocatorIiEEE9constructB7v160006IiJiEvEEvRS2_PT_DpOT0_, symObjAddr: 0x4D9C, symBinAddr: 0x100008218, symSize: 0x34 }
  - { offsetInCU: 0x1DEDD, offset: 0x1DEDD, size: 0x8, addend: 0x0, symName: __ZNSt3__16vectorIiNS_9allocatorIiEEE7__allocB7v160006Ev, symObjAddr: 0x4DD0, symBinAddr: 0x10000824C, symSize: 0x28 }
  - { offsetInCU: 0x1DF03, offset: 0x1DF03, size: 0x8, addend: 0x0, symName: __ZNSt3__16vectorIiNS_9allocatorIiEEE21_ConstructTransactionD1B7v160006Ev, symObjAddr: 0x4E0C, symBinAddr: 0x100008288, symSize: 0x2C }
  - { offsetInCU: 0x1DF2D, offset: 0x1DF2D, size: 0x8, addend: 0x0, symName: __ZNSt3__16vectorIiNS_9allocatorIiEEE21_ConstructTransactionC2B7v160006ERS3_m, symObjAddr: 0x4E38, symBinAddr: 0x1000082B4, symSize: 0x44 }
  - { offsetInCU: 0x1DF75, offset: 0x1DF75, size: 0x8, addend: 0x0, symName: __ZNSt3__19allocatorIiE9constructB7v160006IiJiEEEvPT_DpOT0_, symObjAddr: 0x4E7C, symBinAddr: 0x1000082F8, symSize: 0x28 }
  - { offsetInCU: 0x1DFCB, offset: 0x1DFCB, size: 0x8, addend: 0x0, symName: __ZNSt3__117__compressed_pairIPiNS_9allocatorIiEEE6secondB7v160006Ev, symObjAddr: 0x4EA4, symBinAddr: 0x100008320, symSize: 0x24 }
  - { offsetInCU: 0x1DFF1, offset: 0x1DFF1, size: 0x8, addend: 0x0, symName: __ZNSt3__122__compressed_pair_elemINS_9allocatorIiEELi1ELb1EE5__getB7v160006Ev, symObjAddr: 0x4EC8, symBinAddr: 0x100008344, symSize: 0x14 }
  - { offsetInCU: 0x1E017, offset: 0x1E017, size: 0x8, addend: 0x0, symName: __ZNSt3__16vectorIiNS_9allocatorIiEEE21_ConstructTransactionD2B7v160006Ev, symObjAddr: 0x4EDC, symBinAddr: 0x100008358, symSize: 0x20 }
  - { offsetInCU: 0x1E041, offset: 0x1E041, size: 0x8, addend: 0x0, symName: __ZNKSt3__16vectorIiNS_9allocatorIiEEE11__recommendB7v160006Em, symObjAddr: 0x4EFC, symBinAddr: 0x100008378, symSize: 0xB4 }
  - { offsetInCU: 0x1E096, offset: 0x1E096, size: 0x8, addend: 0x0, symName: __ZNSt3__114__split_bufferIiRNS_9allocatorIiEEEC1EmmS3_, symObjAddr: 0x4FB0, symBinAddr: 0x10000842C, symSize: 0x44 }
  - { offsetInCU: 0x1E0EC, offset: 0x1E0EC, size: 0x8, addend: 0x0, symName: __ZNSt3__114__split_bufferIiRNS_9allocatorIiEEED1Ev, symObjAddr: 0x510C, symBinAddr: 0x100008588, symSize: 0x2C }
  - { offsetInCU: 0x1E118, offset: 0x1E118, size: 0x8, addend: 0x0, symName: __ZNKSt3__16vectorIiNS_9allocatorIiEEE8max_sizeEv, symObjAddr: 0x5138, symBinAddr: 0x1000085B4, symSize: 0x60 }
  - { offsetInCU: 0x1E140, offset: 0x1E140, size: 0x8, addend: 0x0, symName: __ZNKSt3__16vectorIiNS_9allocatorIiEEE20__throw_length_errorB7v160006Ev, symObjAddr: 0x5198, symBinAddr: 0x100008614, symSize: 0x1C }
  - { offsetInCU: 0x1E166, offset: 0x1E166, size: 0x8, addend: 0x0, symName: __ZNKSt3__16vectorIiNS_9allocatorIiEEE8capacityB7v160006Ev, symObjAddr: 0x51B4, symBinAddr: 0x100008630, symSize: 0x40 }
  - { offsetInCU: 0x1E197, offset: 0x1E197, size: 0x8, addend: 0x0, symName: __ZNSt3__116allocator_traitsINS_9allocatorIiEEE8max_sizeB7v160006IS2_vEEmRKS2_, symObjAddr: 0x51F4, symBinAddr: 0x100008670, symSize: 0x24 }
  - { offsetInCU: 0x1E1C5, offset: 0x1E1C5, size: 0x8, addend: 0x0, symName: __ZNKSt3__16vectorIiNS_9allocatorIiEEE7__allocB7v160006Ev, symObjAddr: 0x5218, symBinAddr: 0x100008694, symSize: 0x28 }
  - { offsetInCU: 0x1E1EB, offset: 0x1E1EB, size: 0x8, addend: 0x0, symName: __ZNKSt3__19allocatorIiE8max_sizeB7v160006Ev, symObjAddr: 0x5240, symBinAddr: 0x1000086BC, symSize: 0x14 }
  - { offsetInCU: 0x1E211, offset: 0x1E211, size: 0x8, addend: 0x0, symName: __ZNKSt3__117__compressed_pairIPiNS_9allocatorIiEEE6secondB7v160006Ev, symObjAddr: 0x5254, symBinAddr: 0x1000086D0, symSize: 0x24 }
  - { offsetInCU: 0x1E237, offset: 0x1E237, size: 0x8, addend: 0x0, symName: __ZNKSt3__122__compressed_pair_elemINS_9allocatorIiEELi1ELb1EE5__getB7v160006Ev, symObjAddr: 0x5278, symBinAddr: 0x1000086F4, symSize: 0x14 }
  - { offsetInCU: 0x1E25D, offset: 0x1E25D, size: 0x8, addend: 0x0, symName: __ZNKSt3__16vectorIiNS_9allocatorIiEEE9__end_capB7v160006Ev, symObjAddr: 0x528C, symBinAddr: 0x100008708, symSize: 0x28 }
  - { offsetInCU: 0x1E283, offset: 0x1E283, size: 0x8, addend: 0x0, symName: __ZNKSt3__117__compressed_pairIPiNS_9allocatorIiEEE5firstB7v160006Ev, symObjAddr: 0x52B4, symBinAddr: 0x100008730, symSize: 0x24 }
  - { offsetInCU: 0x1E2A9, offset: 0x1E2A9, size: 0x8, addend: 0x0, symName: __ZNKSt3__122__compressed_pair_elemIPiLi0ELb0EE5__getB7v160006Ev, symObjAddr: 0x52D8, symBinAddr: 0x100008754, symSize: 0x14 }
  - { offsetInCU: 0x1E2CF, offset: 0x1E2CF, size: 0x8, addend: 0x0, symName: __ZNSt3__114__split_bufferIiRNS_9allocatorIiEEEC2EmmS3_, symObjAddr: 0x52EC, symBinAddr: 0x100008768, symSize: 0xD4 }
  - { offsetInCU: 0x1E343, offset: 0x1E343, size: 0x8, addend: 0x0, symName: __ZNSt3__117__compressed_pairIPiRNS_9allocatorIiEEEC1B7v160006IDnS4_EEOT_OT0_, symObjAddr: 0x53C0, symBinAddr: 0x10000883C, symSize: 0x3C }
  - { offsetInCU: 0x1E39B, offset: 0x1E39B, size: 0x8, addend: 0x0, symName: __ZNSt3__114__split_bufferIiRNS_9allocatorIiEEE7__allocB7v160006Ev, symObjAddr: 0x543C, symBinAddr: 0x1000088B8, symSize: 0x28 }
  - { offsetInCU: 0x1E3C1, offset: 0x1E3C1, size: 0x8, addend: 0x0, symName: __ZNSt3__114__split_bufferIiRNS_9allocatorIiEEE9__end_capB7v160006Ev, symObjAddr: 0x5464, symBinAddr: 0x1000088E0, symSize: 0x28 }
  - { offsetInCU: 0x1E3E7, offset: 0x1E3E7, size: 0x8, addend: 0x0, symName: __ZNSt3__117__compressed_pairIPiRNS_9allocatorIiEEEC2B7v160006IDnS4_EEOT_OT0_, symObjAddr: 0x548C, symBinAddr: 0x100008908, symSize: 0x48 }
  - { offsetInCU: 0x1E43F, offset: 0x1E43F, size: 0x8, addend: 0x0, symName: __ZNSt3__122__compressed_pair_elemIPiLi0ELb0EEC2B7v160006IDnvEEOT_, symObjAddr: 0x54D4, symBinAddr: 0x100008950, symSize: 0x1C }
  - { offsetInCU: 0x1E481, offset: 0x1E481, size: 0x8, addend: 0x0, symName: __ZNSt3__122__compressed_pair_elemIRNS_9allocatorIiEELi1ELb0EEC2B7v160006IS3_vEEOT_, symObjAddr: 0x54F0, symBinAddr: 0x10000896C, symSize: 0x20 }
  - { offsetInCU: 0x1E4C3, offset: 0x1E4C3, size: 0x8, addend: 0x0, symName: __ZNSt3__19allocatorIiE8allocateB7v160006Em, symObjAddr: 0x5510, symBinAddr: 0x10000898C, symSize: 0x58 }
  - { offsetInCU: 0x1E4F7, offset: 0x1E4F7, size: 0x8, addend: 0x0, symName: __ZNSt3__117__compressed_pairIPiRNS_9allocatorIiEEE6secondB7v160006Ev, symObjAddr: 0x5568, symBinAddr: 0x1000089E4, symSize: 0x28 }
  - { offsetInCU: 0x1E51D, offset: 0x1E51D, size: 0x8, addend: 0x0, symName: __ZNSt3__122__compressed_pair_elemIRNS_9allocatorIiEELi1ELb0EE5__getB7v160006Ev, symObjAddr: 0x5590, symBinAddr: 0x100008A0C, symSize: 0x18 }
  - { offsetInCU: 0x1E543, offset: 0x1E543, size: 0x8, addend: 0x0, symName: __ZNSt3__117__compressed_pairIPiRNS_9allocatorIiEEE5firstB7v160006Ev, symObjAddr: 0x55A8, symBinAddr: 0x100008A24, symSize: 0x24 }
  - { offsetInCU: 0x1E569, offset: 0x1E569, size: 0x8, addend: 0x0, symName: __ZNKSt3__16vectorIiNS_9allocatorIiEEE17__annotate_deleteB7v160006Ev, symObjAddr: 0x55CC, symBinAddr: 0x100008A48, symSize: 0xB8 }
  - { offsetInCU: 0x1E58F, offset: 0x1E58F, size: 0x8, addend: 0x0, symName: __ZNSt3__116reverse_iteratorIPiEC1B7v160006ES1_, symObjAddr: 0x56FC, symBinAddr: 0x100008B78, symSize: 0x34 }
  - { offsetInCU: 0x1E5C7, offset: 0x1E5C7, size: 0x8, addend: 0x0, symName: __ZNKSt3__116reverse_iteratorIPiE4baseB7v160006Ev, symObjAddr: 0x5730, symBinAddr: 0x100008BAC, symSize: 0x18 }
  - { offsetInCU: 0x1E5ED, offset: 0x1E5ED, size: 0x8, addend: 0x0, symName: __ZNKSt3__16vectorIiNS_9allocatorIiEEE14__annotate_newB7v160006Em, symObjAddr: 0x5784, symBinAddr: 0x100008C00, symSize: 0xAC }
  - { offsetInCU: 0x1E622, offset: 0x1E622, size: 0x8, addend: 0x0, symName: __ZNKSt3__16vectorIiNS_9allocatorIiEEE31__annotate_contiguous_containerB7v160006EPKvS5_S5_S5_, symObjAddr: 0x5840, symBinAddr: 0x100008CBC, symSize: 0x20 }
  - { offsetInCU: 0x1E674, offset: 0x1E674, size: 0x8, addend: 0x0, symName: __ZNKSt3__16vectorIiNS_9allocatorIiEEE4dataB7v160006Ev, symObjAddr: 0x5860, symBinAddr: 0x100008CDC, symSize: 0x28 }
  - { offsetInCU: 0x1E6C0, offset: 0x1E6C0, size: 0x8, addend: 0x0, symName: __ZNKSt3__111__move_loopINS_17_ClassicAlgPolicyEEclB7v160006INS_16reverse_iteratorIPiEES6_S6_EENS_4pairIT_T1_EES8_T0_S9_, symObjAddr: 0x5B78, symBinAddr: 0x100008FF4, symSize: 0xA0 }
  - { offsetInCU: 0x1E72B, offset: 0x1E72B, size: 0x8, addend: 0x0, symName: __ZNSt3__18_IterOpsINS_17_ClassicAlgPolicyEE11__iter_moveB7v160006IRNS_16reverse_iteratorIPiEEEENS_9enable_ifIXsr12is_referenceIDTdeclsr3stdE7declvalIRT_EEEEE5valueEDTclsr3stdE4movedeclsr3stdE7declvalISA_EEEEE4typeEOS9_, symObjAddr: 0x5DAC, symBinAddr: 0x100009228, symSize: 0x28 }
  - { offsetInCU: 0x1E757, offset: 0x1E757, size: 0x8, addend: 0x0, symName: __ZNKSt3__116reverse_iteratorIPiEdeB7v160006Ev, symObjAddr: 0x5DD4, symBinAddr: 0x100009250, symSize: 0x28 }
  - { offsetInCU: 0x1E78B, offset: 0x1E78B, size: 0x8, addend: 0x0, symName: __ZNSt3__116reverse_iteratorIPiEppB7v160006Ev, symObjAddr: 0x5DFC, symBinAddr: 0x100009278, symSize: 0x20 }
  - { offsetInCU: 0x1E7B1, offset: 0x1E7B1, size: 0x8, addend: 0x0, symName: __ZNSt3__18_IterOpsINS_17_ClassicAlgPolicyEE25__validate_iter_referenceB7v160006IRNS_16reverse_iteratorIPiEEEEvv, symObjAddr: 0x5E1C, symBinAddr: 0x100009298, symSize: 0x4 }
  - { offsetInCU: 0x1E7CF, offset: 0x1E7CF, size: 0x8, addend: 0x0, symName: __ZNSt3__118__unwrap_iter_implINS_16reverse_iteratorIPiEELb0EE8__unwrapB7v160006ES3_, symObjAddr: 0x5E20, symBinAddr: 0x10000929C, symSize: 0x24 }
  - { offsetInCU: 0x1E7F8, offset: 0x1E7F8, size: 0x8, addend: 0x0, symName: __ZNSt3__14pairINS_16reverse_iteratorIPiEES3_EC1B7v160006IS3_S3_LPv0EEEOT_OT0_, symObjAddr: 0x5E44, symBinAddr: 0x1000092C0, symSize: 0x3C }
  - { offsetInCU: 0x1E856, offset: 0x1E856, size: 0x8, addend: 0x0, symName: __ZNSt3__14pairINS_16reverse_iteratorIPiEES3_EC2B7v160006IS3_S3_LPv0EEEOT_OT0_, symObjAddr: 0x5E80, symBinAddr: 0x1000092FC, symSize: 0x34 }
  - { offsetInCU: 0x1E8B4, offset: 0x1E8B4, size: 0x8, addend: 0x0, symName: __ZNSt3__118__unwrap_iter_implINS_16reverse_iteratorIPiEELb0EE8__rewrapB7v160006ES3_S3_, symObjAddr: 0x5EB4, symBinAddr: 0x100009330, symSize: 0x2C }
  - { offsetInCU: 0x1E8E2, offset: 0x1E8E2, size: 0x8, addend: 0x0, symName: __ZNSt3__116reverse_iteratorIPiEC2B7v160006ES1_, symObjAddr: 0x5EE0, symBinAddr: 0x10000935C, symSize: 0x28 }
  - { offsetInCU: 0x1E91A, offset: 0x1E91A, size: 0x8, addend: 0x0, symName: __ZNSt3__114__split_bufferIiRNS_9allocatorIiEEED2Ev, symObjAddr: 0x5F08, symBinAddr: 0x100009384, symSize: 0x8C }
  - { offsetInCU: 0x1E946, offset: 0x1E946, size: 0x8, addend: 0x0, symName: __ZNSt3__114__split_bufferIiRNS_9allocatorIiEEE5clearB7v160006Ev, symObjAddr: 0x5F94, symBinAddr: 0x100009410, symSize: 0x28 }
  - { offsetInCU: 0x1E96C, offset: 0x1E96C, size: 0x8, addend: 0x0, symName: __ZNSt3__116allocator_traitsINS_9allocatorIiEEE10deallocateB7v160006ERS2_Pim, symObjAddr: 0x5FBC, symBinAddr: 0x100009438, symSize: 0x34 }
  - { offsetInCU: 0x1E9AE, offset: 0x1E9AE, size: 0x8, addend: 0x0, symName: __ZNKSt3__114__split_bufferIiRNS_9allocatorIiEEE8capacityB7v160006Ev, symObjAddr: 0x5FF0, symBinAddr: 0x10000946C, symSize: 0x40 }
  - { offsetInCU: 0x1E9D4, offset: 0x1E9D4, size: 0x8, addend: 0x0, symName: __ZNSt3__114__split_bufferIiRNS_9allocatorIiEEE17__destruct_at_endB7v160006EPi, symObjAddr: 0x6030, symBinAddr: 0x1000094AC, symSize: 0x2C }
  - { offsetInCU: 0x1EA08, offset: 0x1EA08, size: 0x8, addend: 0x0, symName: __ZNSt3__114__split_bufferIiRNS_9allocatorIiEEE17__destruct_at_endB7v160006EPiNS_17integral_constantIbLb0EEE, symObjAddr: 0x605C, symBinAddr: 0x1000094D8, symSize: 0x80 }
  - { offsetInCU: 0x1EA49, offset: 0x1EA49, size: 0x8, addend: 0x0, symName: __ZNSt3__116allocator_traitsINS_9allocatorIiEEE7destroyB7v160006IivEEvRS2_PT_, symObjAddr: 0x60DC, symBinAddr: 0x100009558, symSize: 0x2C }
  - { offsetInCU: 0x1EA86, offset: 0x1EA86, size: 0x8, addend: 0x0, symName: __ZNSt3__19allocatorIiE7destroyB7v160006EPi, symObjAddr: 0x6108, symBinAddr: 0x100009584, symSize: 0x14 }
  - { offsetInCU: 0x1EABA, offset: 0x1EABA, size: 0x8, addend: 0x0, symName: __ZNSt3__19allocatorIiE10deallocateB7v160006EPim, symObjAddr: 0x611C, symBinAddr: 0x100009598, symSize: 0x40 }
  - { offsetInCU: 0x1EAFC, offset: 0x1EAFC, size: 0x8, addend: 0x0, symName: __ZNKSt3__114__split_bufferIiRNS_9allocatorIiEEE9__end_capB7v160006Ev, symObjAddr: 0x615C, symBinAddr: 0x1000095D8, symSize: 0x28 }
  - { offsetInCU: 0x1EB22, offset: 0x1EB22, size: 0x8, addend: 0x0, symName: __ZNKSt3__117__compressed_pairIPiRNS_9allocatorIiEEE5firstB7v160006Ev, symObjAddr: 0x6184, symBinAddr: 0x100009600, symSize: 0x24 }
  - { offsetInCU: 0x1EB48, offset: 0x1EB48, size: 0x8, addend: 0x0, symName: __ZNSt3__118basic_stringstreamIcNS_11char_traitsIcEENS_9allocatorIcEEED2Ev, symObjAddr: 0x61A8, symBinAddr: 0x100009624, symSize: 0x6C }
  - { offsetInCU: 0x1EB82, offset: 0x1EB82, size: 0x8, addend: 0x0, symName: __ZThn16_NSt3__118basic_stringstreamIcNS_11char_traitsIcEENS_9allocatorIcEEED1Ev, symObjAddr: 0x6214, symBinAddr: 0x100009690, symSize: 0x1C }
  - { offsetInCU: 0x1EB99, offset: 0x1EB99, size: 0x8, addend: 0x0, symName: __ZTv0_n24_NSt3__118basic_stringstreamIcNS_11char_traitsIcEENS_9allocatorIcEEED1Ev, symObjAddr: 0x6230, symBinAddr: 0x1000096AC, symSize: 0x28 }
  - { offsetInCU: 0x1EBB5, offset: 0x1EBB5, size: 0x8, addend: 0x0, symName: __ZNSt3__115basic_stringbufIcNS_11char_traitsIcEENS_9allocatorIcEEED1Ev, symObjAddr: 0x6258, symBinAddr: 0x1000096D4, symSize: 0x2C }
  - { offsetInCU: 0x1EBE2, offset: 0x1EBE2, size: 0x8, addend: 0x0, symName: __ZNSt3__115basic_stringbufIcNS_11char_traitsIcEENS_9allocatorIcEEED2Ev, symObjAddr: 0x6284, symBinAddr: 0x100009700, symSize: 0x48 }
  - { offsetInCU: 0x1EC0F, offset: 0x1EC0F, size: 0x8, addend: 0x0, symName: __ZNSt3__114basic_ifstreamIcNS_11char_traitsIcEEED2Ev, symObjAddr: 0x62CC, symBinAddr: 0x100009748, symSize: 0x64 }
  - { offsetInCU: 0x1EC49, offset: 0x1EC49, size: 0x8, addend: 0x0, symName: __ZTv0_n24_NSt3__114basic_ifstreamIcNS_11char_traitsIcEEED1Ev, symObjAddr: 0x6330, symBinAddr: 0x1000097AC, symSize: 0x28 }
  - { offsetInCU: 0x1EC60, offset: 0x1EC60, size: 0x8, addend: 0x0, symName: __ZN2cv11_InputArrayC2ERKNSt3__16vectorINS_3MatENS1_9allocatorIS3_EEEE, symObjAddr: 0x6358, symBinAddr: 0x1000097D4, symSize: 0x44 }
  - { offsetInCU: 0x1EC9A, offset: 0x1EC9A, size: 0x8, addend: 0x0, symName: __ZN2cv5Size_IiEC1Ev, symObjAddr: 0x639C, symBinAddr: 0x100009818, symSize: 0x2C }
  - { offsetInCU: 0x1ECC6, offset: 0x1ECC6, size: 0x8, addend: 0x0, symName: __ZN2cv11_InputArray4initEiPKv, symObjAddr: 0x63C8, symBinAddr: 0x100009844, symSize: 0x2C }
  - { offsetInCU: 0x1ED0A, offset: 0x1ED0A, size: 0x8, addend: 0x0, symName: __ZN2cv5Size_IiEC2Ev, symObjAddr: 0x63F4, symBinAddr: 0x100009870, symSize: 0x1C }
  - { offsetInCU: 0x1ED36, offset: 0x1ED36, size: 0x8, addend: 0x0, symName: __ZN2cv11_InputArrayD2Ev, symObjAddr: 0x6410, symBinAddr: 0x10000988C, symSize: 0x14 }
  - { offsetInCU: 0x1ED62, offset: 0x1ED62, size: 0x8, addend: 0x0, symName: __ZN2cv11_InputArrayC2ERKNS_3MatE, symObjAddr: 0x6424, symBinAddr: 0x1000098A0, symSize: 0x44 }
  - { offsetInCU: 0x1ED9C, offset: 0x1ED9C, size: 0x8, addend: 0x0, symName: __ZNK2cv11_InputArray6getMatEi, symObjAddr: 0x6468, symBinAddr: 0x1000098E4, symSize: 0x80 }
  - { offsetInCU: 0x1EDD2, offset: 0x1EDD2, size: 0x8, addend: 0x0, symName: __ZNK2cv3Mat8channelsEv, symObjAddr: 0x64E8, symBinAddr: 0x100009964, symSize: 0x24 }
  - { offsetInCU: 0x1EE00, offset: 0x1EE00, size: 0x8, addend: 0x0, symName: __ZN2cv17_InputOutputArrayC1ERNS_3MatE, symObjAddr: 0x650C, symBinAddr: 0x100009988, symSize: 0x34 }
  - { offsetInCU: 0x1EE3C, offset: 0x1EE3C, size: 0x8, addend: 0x0, symName: __ZN2cv17_InputOutputArrayD1Ev, symObjAddr: 0x6540, symBinAddr: 0x1000099BC, symSize: 0x2C }
  - { offsetInCU: 0x1EE69, offset: 0x1EE69, size: 0x8, addend: 0x0, symName: __ZN2cv17_InputOutputArrayC2ERNS_3MatE, symObjAddr: 0x656C, symBinAddr: 0x1000099E8, symSize: 0x40 }
  - { offsetInCU: 0x1EEA5, offset: 0x1EEA5, size: 0x8, addend: 0x0, symName: __ZN2cv12_OutputArrayC2Ev, symObjAddr: 0x65AC, symBinAddr: 0x100009A28, symSize: 0x3C }
  - { offsetInCU: 0x1EED1, offset: 0x1EED1, size: 0x8, addend: 0x0, symName: __ZN2cv11_InputArrayC2Ev, symObjAddr: 0x65E8, symBinAddr: 0x100009A64, symSize: 0x40 }
  - { offsetInCU: 0x1EEFD, offset: 0x1EEFD, size: 0x8, addend: 0x0, symName: __ZN2cv17_InputOutputArrayD2Ev, symObjAddr: 0x6628, symBinAddr: 0x100009AA4, symSize: 0x2C }
  - { offsetInCU: 0x1EF2A, offset: 0x1EF2A, size: 0x8, addend: 0x0, symName: __ZN2cv12_OutputArrayD2Ev, symObjAddr: 0x6654, symBinAddr: 0x100009AD0, symSize: 0x2C }
  - { offsetInCU: 0x1EF61, offset: 0x1EF61, size: 0x8, addend: 0x0, symName: __ZNKSt3__16__lessIiiEclB7v160006ERKiS3_, symObjAddr: 0x66D4, symBinAddr: 0x100009B50, symSize: 0x34 }
  - { offsetInCU: 0x1EFA3, offset: 0x1EFA3, size: 0x8, addend: 0x0, symName: __ZN2cv12_OutputArrayC2ERNS_3MatE, symObjAddr: 0x6708, symBinAddr: 0x100009B84, symSize: 0x40 }
  - { offsetInCU: 0x1EFDD, offset: 0x1EFDD, size: 0x8, addend: 0x0, symName: __ZN2cv5RangeC2Eii, symObjAddr: 0x6748, symBinAddr: 0x100009BC4, symSize: 0x2C }
  - { offsetInCU: 0x1F027, offset: 0x1F027, size: 0x8, addend: 0x0, symName: __ZN2cv3PtrINS_4face19EigenFaceRecognizerEED2Ev, symObjAddr: 0x6774, symBinAddr: 0x100009BF0, symSize: 0x2C }
  - { offsetInCU: 0x1F053, offset: 0x1F053, size: 0x8, addend: 0x0, symName: __ZNSt3__110shared_ptrIN2cv4face19EigenFaceRecognizerEED2B7v160006Ev, symObjAddr: 0x67A0, symBinAddr: 0x100009C1C, symSize: 0x54 }
  - { offsetInCU: 0x1F07D, offset: 0x1F07D, size: 0x8, addend: 0x0, symName: __ZNSt3__119__shared_weak_count16__release_sharedB7v160006Ev, symObjAddr: 0x67F4, symBinAddr: 0x100009C70, symSize: 0x3C }
  - { offsetInCU: 0x1F0A3, offset: 0x1F0A3, size: 0x8, addend: 0x0, symName: __ZNSt3__114__shared_count16__release_sharedB7v160006Ev, symObjAddr: 0x6830, symBinAddr: 0x100009CAC, symSize: 0x7C }
  - { offsetInCU: 0x1F0C9, offset: 0x1F0C9, size: 0x8, addend: 0x0, symName: __ZNSt3__112basic_stringIcNS_11char_traitsIcEENS_9allocatorIcEEEC2B7v160006IDnEEPKc, symObjAddr: 0x68DC, symBinAddr: 0x100009D58, symSize: 0x60 }
  - { offsetInCU: 0x1F107, offset: 0x1F107, size: 0x8, addend: 0x0, symName: __ZNSt3__111char_traitsIcE6lengthEPKc, symObjAddr: 0x693C, symBinAddr: 0x100009DB8, symSize: 0x34 }
  - { offsetInCU: 0x1F14B, offset: 0x1F14B, size: 0x8, addend: 0x0, symName: __ZNKSt3__113basic_ostreamIcNS_11char_traitsIcEEE6sentrycvbB7v160006Ev, symObjAddr: 0x6B80, symBinAddr: 0x100009FFC, symSize: 0x1C }
  - { offsetInCU: 0x1F171, offset: 0x1F171, size: 0x8, addend: 0x0, symName: __ZNSt3__119ostreambuf_iteratorIcNS_11char_traitsIcEEEC1B7v160006ERNS_13basic_ostreamIcS2_EE, symObjAddr: 0x6DDC, symBinAddr: 0x10000A258, symSize: 0x34 }
  - { offsetInCU: 0x1F1A9, offset: 0x1F1A9, size: 0x8, addend: 0x0, symName: __ZNKSt3__18ios_base5flagsB7v160006Ev, symObjAddr: 0x6E10, symBinAddr: 0x10000A28C, symSize: 0x18 }
  - { offsetInCU: 0x1F1D1, offset: 0x1F1D1, size: 0x8, addend: 0x0, symName: __ZNKSt3__19basic_iosIcNS_11char_traitsIcEEE4fillB7v160006Ev, symObjAddr: 0x6E28, symBinAddr: 0x10000A2A4, symSize: 0x64 }
  - { offsetInCU: 0x1F1F9, offset: 0x1F1F9, size: 0x8, addend: 0x0, symName: __ZNKSt3__119ostreambuf_iteratorIcNS_11char_traitsIcEEE6failedB7v160006Ev, symObjAddr: 0x6E8C, symBinAddr: 0x10000A308, symSize: 0x24 }
  - { offsetInCU: 0x1F21F, offset: 0x1F21F, size: 0x8, addend: 0x0, symName: __ZNKSt3__18ios_base5widthB7v160006Ev, symObjAddr: 0x6EB0, symBinAddr: 0x10000A32C, symSize: 0x18 }
  - { offsetInCU: 0x1F247, offset: 0x1F247, size: 0x8, addend: 0x0, symName: __ZNSt3__115basic_streambufIcNS_11char_traitsIcEEE5sputnB7v160006EPKcl, symObjAddr: 0x6EC8, symBinAddr: 0x10000A344, symSize: 0x3C }
  - { offsetInCU: 0x1F289, offset: 0x1F289, size: 0x8, addend: 0x0, symName: __ZNSt3__112basic_stringIcNS_11char_traitsIcEENS_9allocatorIcEEEC1B7v160006Emc, symObjAddr: 0x6F04, symBinAddr: 0x10000A380, symSize: 0x3C }
  - { offsetInCU: 0x1F2D1, offset: 0x1F2D1, size: 0x8, addend: 0x0, symName: __ZNKSt3__112basic_stringIcNS_11char_traitsIcEENS_9allocatorIcEEE4dataB7v160006Ev, symObjAddr: 0x6F40, symBinAddr: 0x10000A3BC, symSize: 0x28 }
  - { offsetInCU: 0x1F2F7, offset: 0x1F2F7, size: 0x8, addend: 0x0, symName: __ZNSt3__18ios_base5widthB7v160006El, symObjAddr: 0x6F68, symBinAddr: 0x10000A3E4, symSize: 0x2C }
  - { offsetInCU: 0x1F33D, offset: 0x1F33D, size: 0x8, addend: 0x0, symName: __ZNSt3__112basic_stringIcNS_11char_traitsIcEENS_9allocatorIcEEEC2B7v160006Emc, symObjAddr: 0x6F94, symBinAddr: 0x10000A410, symSize: 0x54 }
  - { offsetInCU: 0x1F385, offset: 0x1F385, size: 0x8, addend: 0x0, symName: __ZNKSt3__112basic_stringIcNS_11char_traitsIcEENS_9allocatorIcEEE13__get_pointerB7v160006Ev, symObjAddr: 0x6FFC, symBinAddr: 0x10000A478, symSize: 0x54 }
  - { offsetInCU: 0x1F3AB, offset: 0x1F3AB, size: 0x8, addend: 0x0, symName: __ZNKSt3__112basic_stringIcNS_11char_traitsIcEENS_9allocatorIcEEE18__get_long_pointerB7v160006Ev, symObjAddr: 0x7050, symBinAddr: 0x10000A4CC, symSize: 0x28 }
  - { offsetInCU: 0x1F3D1, offset: 0x1F3D1, size: 0x8, addend: 0x0, symName: __ZNKSt3__112basic_stringIcNS_11char_traitsIcEENS_9allocatorIcEEE19__get_short_pointerB7v160006Ev, symObjAddr: 0x7078, symBinAddr: 0x10000A4F4, symSize: 0x28 }
  - { offsetInCU: 0x1F3F7, offset: 0x1F3F7, size: 0x8, addend: 0x0, symName: __ZNSt3__114pointer_traitsIPKcE10pointer_toB7v160006ERS1_, symObjAddr: 0x70A0, symBinAddr: 0x10000A51C, symSize: 0x14 }
  - { offsetInCU: 0x1F41A, offset: 0x1F41A, size: 0x8, addend: 0x0, symName: __ZNSt3__119ostreambuf_iteratorIcNS_11char_traitsIcEEEC2B7v160006ERNS_13basic_ostreamIcS2_EE, symObjAddr: 0x70B4, symBinAddr: 0x10000A530, symSize: 0x54 }
  - { offsetInCU: 0x1F452, offset: 0x1F452, size: 0x8, addend: 0x0, symName: __ZNSt3__16vectorIN2cv3MatENS_9allocatorIS2_EEEC2B7v160006Ev, symObjAddr: 0x7108, symBinAddr: 0x10000A584, symSize: 0x58 }
  - { offsetInCU: 0x1F47C, offset: 0x1F47C, size: 0x8, addend: 0x0, symName: __ZNSt3__117__compressed_pairIPN2cv3MatENS_9allocatorIS2_EEEC1B7v160006IDnNS_18__default_init_tagEEEOT_OT0_, symObjAddr: 0x7160, symBinAddr: 0x10000A5DC, symSize: 0x3C }
  - { offsetInCU: 0x1F4D4, offset: 0x1F4D4, size: 0x8, addend: 0x0, symName: __ZNSt3__117__compressed_pairIPN2cv3MatENS_9allocatorIS2_EEEC2B7v160006IDnNS_18__default_init_tagEEEOT_OT0_, symObjAddr: 0x71AC, symBinAddr: 0x10000A628, symSize: 0x40 }
  - { offsetInCU: 0x1F52C, offset: 0x1F52C, size: 0x8, addend: 0x0, symName: __ZNSt3__122__compressed_pair_elemINS_9allocatorIN2cv3MatEEELi1ELb1EEC2B7v160006ENS_18__default_init_tagE, symObjAddr: 0x71EC, symBinAddr: 0x10000A668, symSize: 0x2C }
  - { offsetInCU: 0x1F561, offset: 0x1F561, size: 0x8, addend: 0x0, symName: __ZNSt3__19allocatorIN2cv3MatEEC2B7v160006Ev, symObjAddr: 0x7218, symBinAddr: 0x10000A694, symSize: 0x2C }
  - { offsetInCU: 0x1F58B, offset: 0x1F58B, size: 0x8, addend: 0x0, symName: __ZNSt3__116__non_trivial_ifILb1ENS_9allocatorIN2cv3MatEEEEC2B7v160006Ev, symObjAddr: 0x7244, symBinAddr: 0x10000A6C0, symSize: 0x14 }
  - { offsetInCU: 0x1F5B5, offset: 0x1F5B5, size: 0x8, addend: 0x0, symName: __ZNSt3__16vectorIN2cv3MatENS_9allocatorIS2_EEED2B7v160006Ev, symObjAddr: 0x7258, symBinAddr: 0x10000A6D4, symSize: 0x44 }
  - { offsetInCU: 0x1F5DF, offset: 0x1F5DF, size: 0x8, addend: 0x0, symName: __ZNSt3__16vectorIN2cv3MatENS_9allocatorIS2_EEE16__destroy_vectorC1ERS5_, symObjAddr: 0x729C, symBinAddr: 0x10000A718, symSize: 0x34 }
  - { offsetInCU: 0x1F618, offset: 0x1F618, size: 0x8, addend: 0x0, symName: __ZNSt3__16vectorIN2cv3MatENS_9allocatorIS2_EEE16__destroy_vectorclB7v160006Ev, symObjAddr: 0x72D0, symBinAddr: 0x10000A74C, symSize: 0x9C }
  - { offsetInCU: 0x1F63E, offset: 0x1F63E, size: 0x8, addend: 0x0, symName: __ZNSt3__16vectorIN2cv3MatENS_9allocatorIS2_EEE16__destroy_vectorC2ERS5_, symObjAddr: 0x736C, symBinAddr: 0x10000A7E8, symSize: 0x20 }
  - { offsetInCU: 0x1F677, offset: 0x1F677, size: 0x8, addend: 0x0, symName: __ZNSt3__16vectorIN2cv3MatENS_9allocatorIS2_EEE7__clearB7v160006Ev, symObjAddr: 0x739C, symBinAddr: 0x10000A818, symSize: 0x28 }
  - { offsetInCU: 0x1F69D, offset: 0x1F69D, size: 0x8, addend: 0x0, symName: __ZNSt3__16vectorIN2cv3MatENS_9allocatorIS2_EEE22__base_destruct_at_endB7v160006EPS2_, symObjAddr: 0x73C4, symBinAddr: 0x10000A840, symSize: 0x8C }
  - { offsetInCU: 0x1F6E1, offset: 0x1F6E1, size: 0x8, addend: 0x0, symName: __ZNSt3__16vectorIiNS_9allocatorIiEEEC2B7v160006Ev, symObjAddr: 0x7450, symBinAddr: 0x10000A8CC, symSize: 0x58 }
  - { offsetInCU: 0x1F70B, offset: 0x1F70B, size: 0x8, addend: 0x0, symName: __ZNSt3__117__compressed_pairIPiNS_9allocatorIiEEEC1B7v160006IDnNS_18__default_init_tagEEEOT_OT0_, symObjAddr: 0x74A8, symBinAddr: 0x10000A924, symSize: 0x3C }
  - { offsetInCU: 0x1F763, offset: 0x1F763, size: 0x8, addend: 0x0, symName: __ZNSt3__117__compressed_pairIPiNS_9allocatorIiEEEC2B7v160006IDnNS_18__default_init_tagEEEOT_OT0_, symObjAddr: 0x74F4, symBinAddr: 0x10000A970, symSize: 0x40 }
  - { offsetInCU: 0x1F7BB, offset: 0x1F7BB, size: 0x8, addend: 0x0, symName: __ZNSt3__122__compressed_pair_elemINS_9allocatorIiEELi1ELb1EEC2B7v160006ENS_18__default_init_tagE, symObjAddr: 0x7534, symBinAddr: 0x10000A9B0, symSize: 0x2C }
  - { offsetInCU: 0x1F7F0, offset: 0x1F7F0, size: 0x8, addend: 0x0, symName: __ZNSt3__19allocatorIiEC2B7v160006Ev, symObjAddr: 0x7560, symBinAddr: 0x10000A9DC, symSize: 0x2C }
  - { offsetInCU: 0x1F81A, offset: 0x1F81A, size: 0x8, addend: 0x0, symName: __ZNSt3__116__non_trivial_ifILb1ENS_9allocatorIiEEEC2B7v160006Ev, symObjAddr: 0x758C, symBinAddr: 0x10000AA08, symSize: 0x14 }
  - { offsetInCU: 0x1F844, offset: 0x1F844, size: 0x8, addend: 0x0, symName: __ZNSt3__16vectorIiNS_9allocatorIiEEED2B7v160006Ev, symObjAddr: 0x75A0, symBinAddr: 0x10000AA1C, symSize: 0x44 }
  - { offsetInCU: 0x1F86E, offset: 0x1F86E, size: 0x8, addend: 0x0, symName: __ZNSt3__16vectorIiNS_9allocatorIiEEE16__destroy_vectorC1ERS3_, symObjAddr: 0x75E4, symBinAddr: 0x10000AA60, symSize: 0x34 }
  - { offsetInCU: 0x1F8A7, offset: 0x1F8A7, size: 0x8, addend: 0x0, symName: __ZNSt3__16vectorIiNS_9allocatorIiEEE16__destroy_vectorclB7v160006Ev, symObjAddr: 0x7618, symBinAddr: 0x10000AA94, symSize: 0x9C }
  - { offsetInCU: 0x1F8CD, offset: 0x1F8CD, size: 0x8, addend: 0x0, symName: __ZNSt3__16vectorIiNS_9allocatorIiEEE16__destroy_vectorC2ERS3_, symObjAddr: 0x76B4, symBinAddr: 0x10000AB30, symSize: 0x20 }
  - { offsetInCU: 0x1F906, offset: 0x1F906, size: 0x8, addend: 0x0, symName: __ZNSt3__16vectorIiNS_9allocatorIiEEE7__clearB7v160006Ev, symObjAddr: 0x76E4, symBinAddr: 0x10000AB60, symSize: 0x28 }
  - { offsetInCU: 0x1F92C, offset: 0x1F92C, size: 0x8, addend: 0x0, symName: __ZNSt3__16vectorIiNS_9allocatorIiEEE22__base_destruct_at_endB7v160006EPi, symObjAddr: 0x770C, symBinAddr: 0x10000AB88, symSize: 0x8C }
  - { offsetInCU: 0x1F970, offset: 0x1F970, size: 0x8, addend: 0x0, symName: __ZNSt3__16vectorIN2cv3MatENS_9allocatorIS2_EEE17__destruct_at_endB7v160006EPS2_, symObjAddr: 0x7798, symBinAddr: 0x10000AC14, symSize: 0x60 }
  - { offsetInCU: 0x1F9B4, offset: 0x1F9B4, size: 0x8, addend: 0x0, symName: __ZNSt3__16vectorIN2cv3MatENS_9allocatorIS2_EEE27__invalidate_iterators_pastB7v160006EPS2_, symObjAddr: 0x77F8, symBinAddr: 0x10000AC74, symSize: 0x14 }
  - { offsetInCU: 0x1F9EB, offset: 0x1F9EB, size: 0x8, addend: 0x0, symName: __ZNKSt3__16vectorIN2cv3MatENS_9allocatorIS2_EEE17__annotate_shrinkB7v160006Em, symObjAddr: 0x780C, symBinAddr: 0x10000AC88, symSize: 0xD0 }
  - { offsetInCU: 0x1FA20, offset: 0x1FA20, size: 0x8, addend: 0x0, symName: __ZNSt3__16vectorIiNS_9allocatorIiEEE17__destruct_at_endB7v160006EPi, symObjAddr: 0x78DC, symBinAddr: 0x10000AD58, symSize: 0x60 }
  - { offsetInCU: 0x1FA64, offset: 0x1FA64, size: 0x8, addend: 0x0, symName: __ZNSt3__16vectorIiNS_9allocatorIiEEE27__invalidate_iterators_pastB7v160006EPi, symObjAddr: 0x793C, symBinAddr: 0x10000ADB8, symSize: 0x14 }
  - { offsetInCU: 0x1FA9B, offset: 0x1FA9B, size: 0x8, addend: 0x0, symName: __ZNKSt3__16vectorIiNS_9allocatorIiEEE17__annotate_shrinkB7v160006Em, symObjAddr: 0x7950, symBinAddr: 0x10000ADCC, symSize: 0xB4 }
  - { offsetInCU: 0x1FAD0, offset: 0x1FAD0, size: 0x8, addend: 0x0, symName: __ZNKSt3__110shared_ptrIN2cv4face19EigenFaceRecognizerEE3getB7v160006Ev, symObjAddr: 0x7A04, symBinAddr: 0x10000AE80, symSize: 0x18 }
  - { offsetInCU: 0x1FAF6, offset: 0x1FAF6, size: 0x8, addend: 0x0, symName: __ZN2cv11_InputArrayC2IiEERKNSt3__16vectorIT_NS2_9allocatorIS4_EEEE, symObjAddr: 0x7A1C, symBinAddr: 0x10000AE98, symSize: 0x48 }
  - { offsetInCU: 0x1FB37, offset: 0x1FB37, size: 0x8, addend: 0x0, symName: __ZNK2cv3Mat12isContinuousEv, symObjAddr: 0x7A64, symBinAddr: 0x10000AEE0, symSize: 0x24 }
...
